LX51 LINKER/LOCATER V3.64                                                               04/10/2014  16:48:41  PAGE 1


LX51 LINKER/LOCATER V3.64, INVOKED BY:
C:\KEIL\C51\BIN\LX51.EXE D:\01_project\20_안전모\02_source_EzMAC\EzMacPro(SI1000)\EZMacPRO reference C Code\stack\EZMacP
>> ro.obj, D:\01_project\20_안전모\02_source_EzMAC\EzMacPro(SI1000)\EZMacPRO reference C Code\stack\EZMacPro_Const.obj, 
>> D:\01_project\20_안전모\02_source_EzMAC\EzMacPro(SI1000)\EZMacPRO reference C Code\stack\EZMacPro_ExternalInt.obj, D:
>> \01_project\20_안전모\02_source_EzMAC\EzMacPro(SI1000)\EZMacPRO reference C Code\stack\EZMacPro_TimerInt.obj, D:\01_p
>> roject\20_안전모\02_source_EzMAC\EzMacPro(SI1000)\EZMacPRO reference C Code\application\p2p_demo\tx_node\p2p_demo_tx_
>> node.obj, D:\01_project\20_안전모\02_source_EzMAC\EzMacPro(SI1000)\EZMacPRO reference C Code\application\p2p_demo\tx_
>> node\main.obj, D:\01_project\20_안전모\02_source_EzMAC\EzMacPro(SI1000)\EZMacPRO reference C Code\application\p2p_dem
>> o\tx_node\p2p_demo_tx_menu.obj, D:\01_project\20_안전모\02_source_EzMAC\EzMacPro(SI1000)\EZMacPRO reference C Code\bs
>> p\bsp.obj, D:\01_project\20_안전모\02_source_EzMAC\EzMacPro(SI1000)\EZMacPRO reference C Code\application\p2p_demo\tx
>> _node\p2p_demo_tx_callbacks.obj, D:\01_project\20_안전모\02_source_EzMAC\EzMacPro(SI1000)\EZMacPRO reference C Code\b
>> sp\STARTUP.obj TO D:\01_project\20_안전모\02_source_EzMAC\EzMacPro(SI1000)\EZMacPRO reference C Code\application\p2p_
>> demo\tx_node\p2p_demo_tx_node_SI1000MB_KEIL.omf REMOVEUNUSED


CPU MODE:     8051 MODE
MEMORY MODEL: SMALL


INPUT MODULES INCLUDED:
  D:\01_project\20_안전모\02_source_EzMAC\EzMacPro(SI1000)\EZMacPRO reference C Code\stack\EZMacPro.obj (EZMACPRO)
         COMMENT TYPE 1: C51 Compiler
  D:\01_project\20_안전모\02_source_EzMAC\EzMacPro(SI1000)\EZMacPRO reference C Code\stack\EZMacPro_Const.obj (EZMACPRO_
>> CONST)
         COMMENT TYPE 1: C51 Compiler
  D:\01_project\20_안전모\02_source_EzMAC\EzMacPro(SI1000)\EZMacPRO reference C Code\stack\EZMacPro_ExternalInt.obj (EZM
>> ACPRO_EXTERNALINT)
         COMMENT TYPE 1: C51 Compiler
  D:\01_project\20_안전모\02_source_EzMAC\EzMacPro(SI1000)\EZMacPRO reference C Code\stack\EZMacPro_TimerInt.obj (EZMACP
>> RO_TIMERINT)
         COMMENT TYPE 1: C51 Compiler
  D:\01_project\20_안전모\02_source_EzMAC\EzMacPro(SI1000)\EZMacPRO reference C Code\application\p2p_demo\tx_node\p2p_de
>> mo_tx_node.obj (P2P_DEMO_TX_NODE)
         COMMENT TYPE 1: C51 Compiler
  D:\01_project\20_안전모\02_source_EzMAC\EzMacPro(SI1000)\EZMacPRO reference C Code\application\p2p_demo\tx_node\main.o
>> bj (MAIN)
         COMMENT TYPE 1: C51 Compiler
  D:\01_project\20_안전모\02_source_EzMAC\EzMacPro(SI1000)\EZMacPRO reference C Code\application\p2p_demo\tx_node\p2p_de
>> mo_tx_menu.obj (P2P_DEMO_TX_MENU)
         COMMENT TYPE 1: C51 Compiler
  D:\01_project\20_안전모\02_source_EzMAC\EzMacPro(SI1000)\EZMacPRO reference C Code\bsp\bsp.obj (BSP)
         COMMENT TYPE 1: C51 Compiler
  D:\01_project\20_안전모\02_source_EzMAC\EzMacPro(SI1000)\EZMacPRO reference C Code\application\p2p_demo\tx_node\p2p_de
>> mo_tx_callbacks.obj (P2P_DEMO_TX_CALLBACKS)
         COMMENT TYPE 1: C51 Compiler
  D:\01_project\20_안전모\02_source_EzMAC\EzMacPro(SI1000)\EZMacPRO reference C Code\bsp\STARTUP.obj (?C_STARTUP)
         COMMENT TYPE 1: A51 / ASM51 Assembler
  C:\KEIL\C51\LIB\C51S.LIB (?C_INIT)
         COMMENT TYPE 1: A51 / ASM51 Assembler
  C:\KEIL\C51\LIB\C51S.LIB (?C?CLDOPTR)
         COMMENT TYPE 1: A51 / ASM51 Assembler
  C:\KEIL\C51\LIB\C51S.LIB (?C?CSTPTR)
         COMMENT TYPE 1: A51 / ASM51 Assembler
  C:\KEIL\C51\LIB\C51S.LIB (?C?CSTOPTR)
         COMMENT TYPE 1: A51 / ASM51 Assembler
  C:\KEIL\C51\LIB\C51S.LIB (?C?IMUL)
         COMMENT TYPE 1: A51 / ASM51 Assembler
  C:\KEIL\C51\LIB\C51S.LIB (?C?LMUL)
         COMMENT TYPE 1: A51 / ASM51 Assembler
  C:\KEIL\C51\LIB\C51S.LIB (?C?ULCMP)
         COMMENT TYPE 1: A51 / ASM51 Assembler
  C:\KEIL\C51\LIB\C51S.LIB (?C?OFFXADD)
         COMMENT TYPE 1: A51 / ASM51 Assembler
  C:\KEIL\C51\LIB\C51S.LIB (PRINTF)
         COMMENT TYPE 1: A51 / ASM51 Assembler
  C:\KEIL\C51\LIB\C51S.LIB (?C?MEMSET)
LX51 LINKER/LOCATER V3.64                                                             04/10/2014  16:48:41  PAGE 2


         COMMENT TYPE 1: A51 / ASM51 Assembler
  C:\KEIL\C51\LIB\C51S.LIB (?C?CLDPTR)
         COMMENT TYPE 1: A51 / ASM51 Assembler
  C:\KEIL\C51\LIB\C51S.LIB (?C?PLDIIDATA)
         COMMENT TYPE 1: A51 / ASM51 Assembler
  C:\KEIL\C51\LIB\C51S.LIB (?C?CCASE)
         COMMENT TYPE 1: A51 / ASM51 Assembler
  C:\KEIL\C51\LIB\C51S.LIB (PUTCHAR)
         COMMENT TYPE 1: A51 / ASM51 Assembler


ACTIVE MEMORY CLASSES OF MODULE:  D:\01_project\20_안전모\02_source_EzMAC\EzMacPro(SI1000)\EZMacPRO reference C Code\app
>> lication\p2p_demo\tx_node\p2p_demo_tx_node_SI1000MB_KEIL.omf (EZMACPRO)

BASE        START       END         USED      MEMORY CLASS
==========================================================
C:000000H   C:000000H   C:00FFFFH   002478H   CODE
I:000000H   I:000000H   I:00007FH   000065H   DATA
I:000020H.0 I:000020H.0 I:00002FH.7 000003H.3 BIT
I:000000H   I:000000H   I:0000FFH   000027H   IDATA
X:000000H   X:000000H   X:00FFFFH   0000D5H   XDATA


MEMORY MAP OF MODULE:  D:\01_project\20_안전모\02_source_EzMAC\EzMacPro(SI1000)\EZMacPRO reference C Code\application\p2
>> p_demo\tx_node\p2p_demo_tx_node_SI1000MB_KEIL.omf (EZMACPRO)


START     STOP      LENGTH    ALIGN  RELOC    MEMORY CLASS   SEGMENT NAME
=========================================================================

* * * * * * * * * * *   D A T A   M E M O R Y   * * * * * * * * * * * * *
000000H   000007H   000008H   ---    AT..     DATA           "REG BANK 0"
000008H   00000DH   000006H   BYTE   UNIT     DATA           ?DT?BSP
00000EH   00000FH   000002H   BYTE   UNIT     DATA           ?DT?EZMACPRO_EXTERNALINT
000010H   000011H   000002H   BYTE   UNIT     DATA           ?DT?EZMACPRO_TIMERINT
000012H.0 00001FH.7 00000EH.0 ---    ---      **GAP**
000020H.0 000022H.0 000002H.1 BIT    UNIT     BIT            ?BI?P2P_DEMO_TX_CALLBACKS
000022H.1 000023H.1 000001H.1 BIT    UNIT     BIT            _BIT_GROUP_
000023H.2 000023H.2 000000H.1 BIT    UNIT     BIT            ?BI?EZMACPRO
000023H.3 000023H   000000H.5 ---    ---      **GAP**
000024H   000055H   000032H   BYTE   UNIT     DATA           _DATA_GROUP_
000056H   000076H   000021H   BYTE   UNIT     DATA           ?DT?EZMACPRO
000077H   00009CH   000026H   BYTE   UNIT     IDATA          ?ID?EZMACPRO
00009DH   00009DH   000001H   BYTE   UNIT     IDATA          ?STACK

* * * * * * * * * * *   C O D E   M E M O R Y   * * * * * * * * * * * * *
000000H   000002H   000003H   ---    OFFS..   CODE           ?CO??C_STARTUP?0
000003H   000005H   000003H   ---    OFFS..   CODE           ?CO?EZMACPRO_EXTERNALINT?0
000006H   00006BH   000066H   BYTE   UNIT     CODE           ?CO?EZMACPRO_CONST
00006CH   000072H   000007H   BYTE   UNIT     CODE           ?PR?INTERRUPTINIT?BSP
000073H   000075H   000003H   ---    OFFS..   CODE           ?CO?EZMACPRO_TIMERINT?0
000076H   000434H   0003BFH   BYTE   UNIT     CODE           ?PR?_EXTINTRX_STATEMACHINE?EZMACPRO_EXTERNALINT
000435H   000790H   00035CH   BYTE   UNIT     CODE           ?PR?PRINTF?PRINTF
000791H   000A58H   0002C8H   BYTE   UNIT     CODE           ?PR?_EZMACPRO_REG_WRITE?EZMACPRO
000A59H   000C75H   00021DH   BYTE   UNIT     CODE           ?PR?_SETRFPARAMETERS?EZMACPRO
000C76H   000E1BH   0001A6H   BYTE   UNIT     CODE           ?PR?_TIMERINTTX_STATEMACHINE?EZMACPRO_TIMERINT
000E1CH   000F78H   00015DH   BYTE   UNIT     CODE           ?PR?_MACUPDATEDYNAMICTIMEOUTS?EZMACPRO
000F79H   0010D4H   00015CH   BYTE   UNIT     CODE           ?PR?_EXTINTTX_STATEMACHINE?EZMACPRO_EXTERNALINT
0010D5H   00122EH   00015AH   BYTE   UNIT     CODE           ?PR?VP2P_DEMO_SENDPACKETGOTOSLEEP?P2P_DEMO_TX_NODE
00122FH   001388H   00015AH   BYTE   UNIT     CODE           ?C?LIB_CODE
001389H   0014C2H   00013AH   BYTE   UNIT     CODE           ?PR?EZMACPRO_INIT?EZMACPRO
0014C3H   0015E1H   00011FH   BYTE   UNIT     CODE           ?PR?EZMACPRO_TRANSMIT?EZMACPRO
0015E2H   0016DDH   0000FCH   BYTE   UNIT     CODE           ?PR?_EZMACPRO_ACK_WRITE?EZMACPRO
0016DEH   0017B6H   0000D9H   BYTE   UNIT     CODE           ?PR?STATEMACHINE?P2P_DEMO_TX_NODE
0017B7H   00187EH   0000C8H   BYTE   UNIT     CODE           ?CO?P2P_DEMO_TX_NODE
LX51 LINKER/LOCATER V3.64                                                             04/10/2014  16:48:41  PAGE 3


00187FH   001939H   0000BBH   BYTE   UNIT     CODE           ?PR?VP2P_DEMO_TXINIT?P2P_DEMO_TX_NODE
00193AH   0019E6H   0000ADH   BYTE   UNIT     CODE           ?PR?_TIMERINTRX_STATEMACHINE?EZMACPRO_TIMERINT
0019E7H   001A83H   00009DH   BYTE   UNIT     CODE           ?C_C51STARTUP
001A84H   001B1FH   00009CH   BYTE   UNIT     CODE           ?PR?EXTERNALINTISR?EZMACPRO_EXTERNALINT
001B20H   001BA6H   000087H   BYTE   UNIT     CODE           ?PR?EXTINTBADADDRERROR?EZMACPRO_EXTERNALINT
001BA7H   001C29H   000083H   BYTE   UNIT     CODE           ?PR?_EZMACPRO_TXBUF_WRITE?EZMACPRO
001C2AH   001CA5H   00007CH   BYTE   UNIT     CODE           ?PR?_EXTINTGOTONEXTSTATEUSINGSECR?EZMACPRO_EXTERNALINT
001CA6H   001D21H   00007CH   BYTE   UNIT     CODE           ?PR?TIMERINTT3_ISR?EZMACPRO_TIMERINT
001D22H   001D9DH   00007CH   BYTE   UNIT     CODE           ?PR?_TIMERINTGOTONEXTSTATEUSINGSECR?EZMACPRO_TIMERINT
001D9EH   001E10H   000073H   BYTE   UNIT     CODE           ?PR?EZMACPRO_WAKE_UP?EZMACPRO
001E11H   001E61H   000051H   BYTE   UNIT     CODE           ?PR?PORTINIT?BSP
001E62H   001EB0H   00004FH   BYTE   UNIT     CODE           ?PR?_DELAY_MS?BSP
001EB1H   001EFEH   00004EH   BYTE   UNIT     CODE           ?PR?_MACUPDATELBTI?EZMACPRO
001EFFH   001F4AH   00004CH   BYTE   UNIT     CODE           ?PR?EXTINTHEADERERROR?EZMACPRO_EXTERNALINT
001F4BH   001F8FH   000045H   BYTE   UNIT     CODE           ?PR?_MACTIMEOUT?BSP
001F90H   001FD2H   000043H   BYTE   UNIT     CODE           ?PR?_EXTINTWAKEUP?EZMACPRO_EXTERNALINT
001FD3H   002013H   000041H   BYTE   UNIT     CODE           ?PR?TIMERINTNEXTRX_CHANNEL?EZMACPRO_TIMERINT
002014H   00204FH   00003CH   BYTE   UNIT     CODE           ?CO?BSP
002050H   002088H   000039H   BYTE   UNIT     CODE           ?PR?_MACSPIWRITEFIFO?BSP
002089H   0020BFH   000037H   BYTE   UNIT     CODE           ?PR?EXTINTNEXTRX_CHANNEL?EZMACPRO_EXTERNALINT
0020C0H   0020F0H   000031H   BYTE   UNIT     CODE           ?PR?_BITSET_XOR?P2P_DEMO_TX_NODE
0020F1H   002120H   000030H   BYTE   UNIT     CODE           ?PR?_EXTINTSPIREADFIFO?BSP
002121H   00214CH   00002CH   BYTE   UNIT     CODE           ?PR?_EXTINTTIMEOUT?BSP
00214DH   002178H   00002CH   BYTE   UNIT     CODE           ?PR?_TIMERINTTIMEOUT?BSP
002179H   00219FH   000027H   BYTE   UNIT     CODE           ?PR?PUTCHAR?PUTCHAR
0021A0H   0021C5H   000026H   BYTE   UNIT     CODE           ?PR?_MACSPIWRITEREG?BSP
0021C6H   0021EBH   000026H   BYTE   UNIT     CODE           ?PR?_MACSPIREADREG?BSP
0021ECH   00220FH   000024H   BYTE   UNIT     CODE           ?PR?_EXTINTSETFUNCTION1?EZMACPRO_EXTERNALINT
002210H   002233H   000024H   BYTE   UNIT     CODE           ?PR?_TIMERINTSETFUNCTION1?EZMACPRO_TIMERINT
002234H   002256H   000023H   BYTE   UNIT     CODE           ?PR?UART0INIT?BSP
002257H   002279H   000023H   BYTE   UNIT     CODE           ?C_INITSEG
00227AH   00229BH   000022H   BYTE   UNIT     CODE           ?PR?_MACSETFUNCTION1?EZMACPRO
00229CH   0022B7H   00001CH   BYTE   UNIT     CODE           ?PR?_EXTINTINCREMENTERROR?EZMACPRO_EXTERNALINT
0022B8H   0022D3H   00001CH   BYTE   UNIT     CODE           ?PR?_TIMERINTINCREMENTERROR?EZMACPRO_TIMERINT
0022D4H   0022EEH   00001BH   BYTE   UNIT     CODE           ?PR?_EXTINTSPIWRITEREG?BSP
0022EFH   002309H   00001BH   BYTE   UNIT     CODE           ?PR?_EXTINTSPIREADREG?BSP
00230AH   002324H   00001BH   BYTE   UNIT     CODE           ?PR?_TIMERINTSPIWRITEREG?BSP
002325H   00233FH   00001BH   BYTE   UNIT     CODE           ?PR?_TIMERINTSPIREADREG?BSP
002340H   002358H   000019H   BYTE   UNIT     CODE           ?PR?_MACSETENABLE2?EZMACPRO
002359H   002371H   000019H   BYTE   UNIT     CODE           ?PR?_EXTINTSETENABLE2?EZMACPRO_EXTERNALINT
002372H   00238AH   000019H   BYTE   UNIT     CODE           ?PR?_TIMERINTSETENABLE2?EZMACPRO_TIMERINT
00238BH   0023A0H   000016H   BYTE   UNIT     CODE           ?PR?TIMERINTRANDOM?EZMACPRO_TIMERINT
0023A1H   0023B6H   000016H   BYTE   UNIT     CODE           ?PR?TIMER3INIT?BSP
0023B7H   0023CBH   000015H   BYTE   UNIT     CODE           ?PR?BOARDINIT?BSP
0023CCH   0023DDH   000012H   BYTE   UNIT     CODE           ?PR?SYSTEMCLKINIT?BSP
0023DEH   0023EEH   000011H   BYTE   UNIT     CODE           ?PR?EZMACPRO_ACKSENDING?P2P_DEMO_TX_CALLBACKS
0023EFH   0023FDH   00000FH   BYTE   UNIT     CODE           ?PR?_MACSPECIALREGISTERSETTINGS?EZMACPRO
0023FEH   00240CH   00000FH   BYTE   UNIT     CODE           ?PR?EXTINTDISABLEINTERRUPTS?EZMACPRO_EXTERNALINT
00240DH   00241BH   00000FH   BYTE   UNIT     CODE           ?PR?TIMERINTDISABLEINTERRUPTS?EZMACPRO_TIMERINT
00241CH   00242AH   00000FH   BYTE   UNIT     CODE           ?PR?SPI1INIT?BSP
00242BH   002436H   00000CH   BYTE   UNIT     CODE           ?PR?TIMERINTWAKEUP?EZMACPRO_TIMERINT
002437H   002440H   00000AH   BYTE   UNIT     CODE           ?PR?STATEMACHINE_INIT?P2P_DEMO_TX_NODE
002441H   002448H   000008H   BYTE   UNIT     CODE           ?PR?MAIN?MAIN
002449H   00244DH   000005H   BYTE   UNIT     CODE           ?PR?_EZMACPRO_PACKETRECEIVED?P2P_DEMO_TX_CALLBACKS
00244EH   002450H   000003H   BYTE   UNIT     CODE           ?PR?LEDINIT?BSP
002451H   002453H   000003H   BYTE   UNIT     CODE           ?PR?EZMACPRO_STATEWAKEUPENTERED?P2P_DEMO_TX_CALLBACKS
002454H   002456H   000003H   BYTE   UNIT     CODE           ?PR?EZMACPRO_STATESLEEPENTERED?P2P_DEMO_TX_CALLBACKS
002457H   002459H   000003H   BYTE   UNIT     CODE           ?PR?EZMACPRO_STATEIDLEENTERED?P2P_DEMO_TX_CALLBACKS
00245AH   00245CH   000003H   BYTE   UNIT     CODE           ?PR?EZMACPRO_STATETXENTERED?P2P_DEMO_TX_CALLBACKS
00245DH   00245FH   000003H   BYTE   UNIT     CODE           ?PR?EZMACPRO_STATEERRORENTERED?P2P_DEMO_TX_CALLBACKS
002460H   002462H   000003H   BYTE   UNIT     CODE           ?PR?EZMACPRO_LFTIMEREXPIRED?P2P_DEMO_TX_CALLBACKS
002463H   002465H   000003H   BYTE   UNIT     CODE           ?PR?EZMACPRO_LOWBATTERY?P2P_DEMO_TX_CALLBACKS
002466H   002468H   000003H   BYTE   UNIT     CODE           ?PR?EZMACPRO_SYNCWORDRECEIVED?P2P_DEMO_TX_CALLBACKS
002469H   00246BH   000003H   BYTE   UNIT     CODE           ?PR?EZMACPRO_PACKETDISCARDED?P2P_DEMO_TX_CALLBACKS
00246CH   00246EH   000003H   BYTE   UNIT     CODE           ?PR?EZMACPRO_PACKETSENT?P2P_DEMO_TX_CALLBACKS
LX51 LINKER/LOCATER V3.64                                                             04/10/2014  16:48:41  PAGE 4


00246FH   002471H   000003H   BYTE   UNIT     CODE           ?PR?EZMACPRO_LBTTIMEOUT?P2P_DEMO_TX_CALLBACKS
002472H   002474H   000003H   BYTE   UNIT     CODE           ?PR?EZMACPRO_ACKTIMEOUT?P2P_DEMO_TX_CALLBACKS
002475H   002477H   000003H   BYTE   UNIT     CODE           ?PR?EZMACPRO_CRCERROR?P2P_DEMO_TX_CALLBACKS

* * * * * * * * * * *  X D A T A   M E M O R Y  * * * * * * * * * * * * *
000000H   00006DH   00006EH   BYTE   UNIT     XDATA          ?XD?P2P_DEMO_TX_NODE
00006EH   0000BDH   000050H   BYTE   UNIT     XDATA          ?XD?EZMACPRO
0000BEH   0000D3H   000016H   BYTE   UNIT     XDATA          ?XD?P2P_DEMO_TX_MENU
0000D4H   0000D4H   000001H   BYTE   UNIT     XDATA          _XDATA_GROUP_

* * * * * * * * *   R E M O V E D     S E G M E N T S   * * * * * * * *
   *DEL*:           000038H   BYTE   UNIT     CODE           ?PR?EZMACPRO_SLEEP?EZMACPRO
   *DEL*:           000050H   BYTE   UNIT     CODE           ?PR?EZMACPRO_IDLE?EZMACPRO
   *DEL*:           0000AFH   BYTE   UNIT     CODE           ?PR?EZMACPRO_RECEIVE?EZMACPRO
   *DEL*:           000001H   BYTE   UNIT     DATA           ?DT?EZMACPRO_RECEIVE?EZMACPRO
   *DEL*:           00007AH   BYTE   UNIT     CODE           ?PR?_EZMACPRO_REG_READ?EZMACPRO
   *DEL*:           000004H   BYTE   UNIT     DATA           ?DT?_EZMACPRO_REG_READ?EZMACPRO
   *DEL*:           000033H   BYTE   UNIT     CODE           ?PR?_EZMACPRO_RXBUF_READ?EZMACPRO
   *DEL*:           00000CH   BYTE   UNIT     CODE           ?PR?SPI0INIT?BSP
   *DEL*:           000029H   BYTE   UNIT     CODE           ?PR?_DELAY?BSP
   *DEL*:           000002H   BYTE   UNIT     DATA           ?DT?_DELAY?BSP
   *DEL*:           00000DH   BYTE   UNIT     CODE           ?PR?TIMER0INIT?BSP
   *DEL*:           000016H   BYTE   UNIT     CODE           ?PR?TIMER2INIT?BSP
   *DEL*:           000030H   BYTE   UNIT     CODE           ?PR?_TIMER0START?BSP
   *DEL*:           000004H   BYTE   UNIT     DATA           ?DT?_TIMER0START?BSP
   *DEL*:           000007H   BYTE   UNIT     CODE           ?PR?TIMER0STOP?BSP
   *DEL*:           000025H   BYTE   UNIT     CODE           ?PR?_TIMER2BUSYWAIT_MS?BSP
   *DEL*:           000002H   BYTE   UNIT     DATA           ?DT?_TIMER2BUSYWAIT_MS?BSP
   *DEL*:           000003H   BYTE   UNIT     CODE           ?PR?EZMACPRO_STATERXENTERED?P2P_DEMO_TX_CALLBACKS



OVERLAY MAP OF MODULE:   D:\01_project\20_안전모\02_source_EzMAC\EzMacPro(SI1000)\EZMacPRO reference C Code\application\
>> p2p_demo\tx_node\p2p_demo_tx_node_SI1000MB_KEIL.omf (EZMACPRO)


FUNCTION/MODULE                                BIT_GROUP   DATA_GROUP   XDATA_GROUP
--> CALLED FUNCTION/MODULE                    START  STOP  START  STOP  START  STOP
===================================================================================
EXTERNALINTISR/EZMACPRO_EXTERNALINT           ----- -----  0024H 0024H  ----- -----
  +--> ?PR?_EXTINTSPIREADREG?BSP
  +--> ?PR?_EXTINTWAKEUP?EZMACPRO_EXTERNALINT
  +--> ?PR?_EXTINTTX_STATEMACHINE?EZMACPRO_E...
  +--> ?PR?_EXTINTRX_STATEMACHINE?EZMACPRO_E...
  +--> ?PR?EXTINTDISABLEINTERRUPTS?EZMACPRO_...
  +--> ?PR?EZMACPRO_LFTIMEREXPIRED?P2P_DEMO_...
  +--> ?PR?EZMACPRO_LOWBATTERY?P2P_DEMO_TX_C...

_EXTINTSPIREADREG/BSP                         ----- -----  ----- -----  ----- -----

_EXTINTWAKEUP/EZMACPRO_EXTERNALINT            ----- -----  0025H 0025H  ----- -----
  +--> ?PR?EXTINTDISABLEINTERRUPTS?EZMACPRO_...
  +--> ?PR?EZMACPRO_STATEIDLEENTERED?P2P_DEM...
  +--> ?PR?_EXTINTSPIWRITEREG?BSP
  +--> ?PR?_EXTINTSETENABLE2?EZMACPRO_EXTERN...
  +--> ?PR?_EXTINTSETFUNCTION1?EZMACPRO_EXTE...
  +--> ?PR?_EXTINTTIMEOUT?BSP
  +--> ?PR?EZMACPRO_STATEERRORENTERED?P2P_DE...

EXTINTDISABLEINTERRUPTS/EZMACPRO_EXTE...      ----- -----  ----- -----  ----- -----
  +--> ?PR?_EXTINTSPIWRITEREG?BSP
  +--> ?PR?_EXTINTSETENABLE2?EZMACPRO_EXTERN...

_EXTINTSPIWRITEREG/BSP                        ----- -----  ----- -----  ----- -----

LX51 LINKER/LOCATER V3.64                                                             04/10/2014  16:48:41  PAGE 5


_EXTINTSETENABLE2/EZMACPRO_EXTERNALINT        ----- -----  ----- -----  ----- -----
  +--> ?PR?_EXTINTSPIWRITEREG?BSP

EZMACPRO_STATEIDLEENTERED/P2P_DEMO_TX...      ----- -----  ----- -----  ----- -----

_EXTINTSETFUNCTION1/EZMACPRO_EXTERNALINT      ----- -----  ----- -----  ----- -----
  +--> ?PR?_EXTINTSPIWRITEREG?BSP

_EXTINTTIMEOUT/BSP                            ----- -----  002BH 002EH  ----- -----

EZMACPRO_STATEERRORENTERED/P2P_DEMO_T...      ----- -----  ----- -----  ----- -----

_EXTINTTX_STATEMACHINE/EZMACPRO_EXTER...      ----- -----  0025H 0027H  ----- -----
  +--> ?PR?_EXTINTSPIWRITEREG?BSP
  +--> ?PR?_EXTINTSETFUNCTION1?EZMACPRO_EXTE...
  +--> ?PR?_EXTINTTIMEOUT?BSP
  +--> ?PR?_EXTINTSETENABLE2?EZMACPRO_EXTERN...
  +--> ?PR?EZMACPRO_PACKETSENT?P2P_DEMO_TX_C...
  +--> ?PR?_EXTINTSPIREADREG?BSP
  +--> ?PR?_EXTINTSPIREADFIFO?BSP
  +--> ?PR?_EXTINTINCREMENTERROR?EZMACPRO_EX...
  +--> ?PR?_EXTINTGOTONEXTSTATEUSINGSECR?EZM...

EZMACPRO_PACKETSENT/P2P_DEMO_TX_CALLB...      ----- -----  ----- -----  ----- -----

_EXTINTSPIREADFIFO/BSP                        ----- -----  ----- -----  ----- -----

_EXTINTINCREMENTERROR/EZMACPRO_EXTERN...      ----- -----  ----- -----  ----- -----

_EXTINTGOTONEXTSTATEUSINGSECR/EZMACPR...      ----- -----  0028H 002AH  ----- -----
  +--> ?PR?EXTINTDISABLEINTERRUPTS?EZMACPRO_...
  +--> ?PR?_EXTINTSETFUNCTION1?EZMACPRO_EXTE...
  +--> ?PR?EZMACPRO_STATESLEEPENTERED?P2P_DE...
  +--> ?PR?_EXTINTSPIREADREG?BSP
  +--> ?PR?_EXTINTSPIWRITEREG?BSP
  +--> ?PR?_EXTINTSETENABLE2?EZMACPRO_EXTERN...
  +--> ?PR?EXTINTNEXTRX_CHANNEL?EZMACPRO_EXT...
  +--> ?PR?_EXTINTTIMEOUT?BSP
  +--> ?PR?EZMACPRO_STATEIDLEENTERED?P2P_DEM...

EZMACPRO_STATESLEEPENTERED/P2P_DEMO_T...      ----- -----  ----- -----  ----- -----

EXTINTNEXTRX_CHANNEL/EZMACPRO_EXTERNA...      ----- -----  002BH 002BH  ----- -----
  +--> ?PR?_EXTINTSPIWRITEREG?BSP

_EXTINTRX_STATEMACHINE/EZMACPRO_EXTER...      ----- -----  0025H 0027H  ----- -----
  +--> ?PR?_EXTINTSETENABLE2?EZMACPRO_EXTERN...
  +--> ?PR?_EXTINTTIMEOUT?BSP
  +--> ?PR?_EXTINTSPIREADREG?BSP
  +--> ?PR?EZMACPRO_SYNCWORDRECEIVED?P2P_DEM...
  +--> ?PR?_EXTINTSPIWRITEREG?BSP
  +--> ?PR?EXTINTDISABLEINTERRUPTS?EZMACPRO_...
  +--> ?PR?_EXTINTSETFUNCTION1?EZMACPRO_EXTE...
  +--> ?PR?EXTINTNEXTRX_CHANNEL?EZMACPRO_EXT...
  +--> ?PR?_EXTINTSPIREADFIFO?BSP
  +--> ?PR?EXTINTHEADERERROR?EZMACPRO_EXTERN...
  +--> ?PR?EZMACPRO_ACKSENDING?P2P_DEMO_TX_C...
  +--> ?PR?_EZMACPRO_PACKETRECEIVED?P2P_DEMO...
  +--> ?PR?_EXTINTINCREMENTERROR?EZMACPRO_EX...
  +--> ?PR?EZMACPRO_PACKETDISCARDED?P2P_DEMO...
  +--> ?PR?EZMACPRO_CRCERROR?P2P_DEMO_TX_CAL...
  +--> ?PR?_EXTINTGOTONEXTSTATEUSINGSECR?EZM...
  +--> ?PR?EZMACPRO_STATEERRORENTERED?P2P_DE...

EZMACPRO_SYNCWORDRECEIVED/P2P_DEMO_TX...      ----- -----  ----- -----  ----- -----
LX51 LINKER/LOCATER V3.64                                                             04/10/2014  16:48:41  PAGE 6



EXTINTHEADERERROR/EZMACPRO_EXTERNALINT        ----- -----  ----- -----  ----- -----
  +--> ?PR?_EXTINTSPIREADREG?BSP
  +--> ?PR?EXTINTBADADDRERROR?EZMACPRO_EXTER...
  +--> ?PR?_EXTINTINCREMENTERROR?EZMACPRO_EX...

EXTINTBADADDRERROR/EZMACPRO_EXTERNALINT       ----- -----  0028H 0029H  ----- -----
  +--> ?PR?_EXTINTSPIREADREG?BSP

EZMACPRO_ACKSENDING/P2P_DEMO_TX_CALLB...      ----- -----  ----- -----  00D4H 00D4H
  +--> ?PR?_EZMACPRO_ACK_WRITE?EZMACPRO

_EZMACPRO_ACK_WRITE/EZMACPRO                  ----- -----  0028H 002AH  ----- -----
  +--> ?PR?_MACSPIWRITEREG?BSP

_MACSPIWRITEREG/BSP                           ----- -----  ----- -----  ----- -----

_EZMACPRO_PACKETRECEIVED/P2P_DEMO_TX_...      ----- -----  0028H 0028H  ----- -----

EZMACPRO_PACKETDISCARDED/P2P_DEMO_TX_...      ----- -----  ----- -----  ----- -----

EZMACPRO_CRCERROR/P2P_DEMO_TX_CALLBACKS       ----- -----  ----- -----  ----- -----

EZMACPRO_LFTIMEREXPIRED/P2P_DEMO_TX_C...      ----- -----  ----- -----  ----- -----

EZMACPRO_LOWBATTERY/P2P_DEMO_TX_CALLB...      ----- -----  ----- -----  ----- -----

*** NEW ROOT ********************************

TIMERINTT3_ISR/EZMACPRO_TIMERINT              ----- -----  002FH 002FH  ----- -----
  +--> ?PR?TIMERINTWAKEUP?EZMACPRO_TIMERINT
  +--> ?PR?_TIMERINTTX_STATEMACHINE?EZMACPRO...
  +--> ?PR?_TIMERINTRX_STATEMACHINE?EZMACPRO...

TIMERINTWAKEUP/EZMACPRO_TIMERINT              ----- -----  ----- -----  ----- -----
  +--> ?PR?EZMACPRO_STATEERRORENTERED?P2P_DE...

_TIMERINTTX_STATEMACHINE/EZMACPRO_TIM...      ----- -----  0030H 0033H  ----- -----
  +--> ?PR?TIMERINTRANDOM?EZMACPRO_TIMERINT
  +--> ?PR?_TIMERINTTIMEOUT?BSP
  +--> ?PR?_TIMERINTSETFUNCTION1?EZMACPRO_TI...
  +--> ?PR?_TIMERINTSETENABLE2?EZMACPRO_TIME...
  +--> ?PR?_TIMERINTSPIWRITEREG?BSP
  +--> ?PR?_TIMERINTINCREMENTERROR?EZMACPRO_...
  +--> ?PR?EZMACPRO_LBTTIMEOUT?P2P_DEMO_TX_C...
  +--> ?PR?EZMACPRO_STATEERRORENTERED?P2P_DE...
  +--> ?PR?_TIMERINTSPIREADREG?BSP
  +--> ?PR?EZMACPRO_ACKTIMEOUT?P2P_DEMO_TX_C...
  +--> ?PR?_TIMERINTGOTONEXTSTATEUSINGSECR?E...

TIMERINTRANDOM/EZMACPRO_TIMERINT              ----- -----  ----- -----  ----- -----

_TIMERINTTIMEOUT/BSP                          ----- -----  0037H 003AH  ----- -----

_TIMERINTSETFUNCTION1/EZMACPRO_TIMERINT       ----- -----  ----- -----  ----- -----
  +--> ?PR?_TIMERINTSPIWRITEREG?BSP

_TIMERINTSPIWRITEREG/BSP                      ----- -----  ----- -----  ----- -----

_TIMERINTSETENABLE2/EZMACPRO_TIMERINT         ----- -----  ----- -----  ----- -----
  +--> ?PR?_TIMERINTSPIWRITEREG?BSP

_TIMERINTINCREMENTERROR/EZMACPRO_TIME...      ----- -----  ----- -----  ----- -----

EZMACPRO_LBTTIMEOUT/P2P_DEMO_TX_CALLB...      ----- -----  ----- -----  ----- -----
LX51 LINKER/LOCATER V3.64                                                             04/10/2014  16:48:41  PAGE 7



_TIMERINTSPIREADREG/BSP                       ----- -----  ----- -----  ----- -----

EZMACPRO_ACKTIMEOUT/P2P_DEMO_TX_CALLB...      ----- -----  ----- -----  ----- -----

_TIMERINTGOTONEXTSTATEUSINGSECR/EZMAC...      ----- -----  0034H 0036H  ----- -----
  +--> ?PR?TIMERINTDISABLEINTERRUPTS?EZMACPR...
  +--> ?PR?_TIMERINTSETFUNCTION1?EZMACPRO_TI...
  +--> ?PR?EZMACPRO_STATESLEEPENTERED?P2P_DE...
  +--> ?PR?_TIMERINTSPIREADREG?BSP
  +--> ?PR?_TIMERINTSPIWRITEREG?BSP
  +--> ?PR?_TIMERINTSETENABLE2?EZMACPRO_TIME...
  +--> ?PR?TIMERINTNEXTRX_CHANNEL?EZMACPRO_T...
  +--> ?PR?_TIMERINTTIMEOUT?BSP
  +--> ?PR?EZMACPRO_STATEIDLEENTERED?P2P_DEM...

TIMERINTDISABLEINTERRUPTS/EZMACPRO_TI...      ----- -----  ----- -----  ----- -----
  +--> ?PR?_TIMERINTSPIWRITEREG?BSP
  +--> ?PR?_TIMERINTSETENABLE2?EZMACPRO_TIME...

TIMERINTNEXTRX_CHANNEL/EZMACPRO_TIMERINT      ----- -----  0037H 0037H  ----- -----
  +--> ?PR?_TIMERINTSETFUNCTION1?EZMACPRO_TI...
  +--> ?PR?_TIMERINTSPIWRITEREG?BSP

_TIMERINTRX_STATEMACHINE/EZMACPRO_TIM...      ----- -----  ----- -----  ----- -----
  +--> ?PR?TIMERINTNEXTRX_CHANNEL?EZMACPRO_T...
  +--> ?PR?_TIMERINTTIMEOUT?BSP
  +--> ?PR?_TIMERINTSPIREADREG?BSP
  +--> ?PR?_TIMERINTSPIWRITEREG?BSP
  +--> ?PR?_TIMERINTSETFUNCTION1?EZMACPRO_TI...
  +--> ?PR?_TIMERINTSETENABLE2?EZMACPRO_TIME...
  +--> ?PR?EZMACPRO_STATEERRORENTERED?P2P_DE...

*** NEW ROOT ********************************

?C_C51STARTUP                                 ----- -----  ----- -----  ----- -----
  +--> ?PR?MAIN?MAIN
  +--> ?C_INITSEG

MAIN/MAIN                                     ----- -----  ----- -----  ----- -----
  +--> ?PR?STATEMACHINE_INIT?P2P_DEMO_TX_NODE
  +--> ?PR?STATEMACHINE?P2P_DEMO_TX_NODE

STATEMACHINE_INIT/P2P_DEMO_TX_NODE            ----- -----  ----- -----  ----- -----

STATEMACHINE/P2P_DEMO_TX_NODE                 ----- -----  003BH 003CH  ----- -----
  +--> ?PR?BOARDINIT?BSP
  +--> ?PR?EZMACPRO_INIT?EZMACPRO
  +--> ?PR?_DELAY_MS?BSP
  +--> ?PR?VP2P_DEMO_TXINIT?P2P_DEMO_TX_NODE
  +--> ?PR?VP2P_DEMO_SENDPACKETGOTOSLEEP?P2P...

BOARDINIT/BSP                                 ----- -----  ----- -----  ----- -----
  +--> ?PR?PORTINIT?BSP
  +--> ?PR?SYSTEMCLKINIT?BSP
  +--> ?PR?SPI1INIT?BSP
  +--> ?PR?TIMER3INIT?BSP
  +--> ?PR?INTERRUPTINIT?BSP
  +--> ?PR?LEDINIT?BSP
  +--> ?PR?UART0INIT?BSP

PORTINIT/BSP                                  ----- -----  ----- -----  ----- -----

SYSTEMCLKINIT/BSP                             ----- -----  ----- -----  ----- -----

LX51 LINKER/LOCATER V3.64                                                             04/10/2014  16:48:41  PAGE 8


SPI1INIT/BSP                                  ----- -----  ----- -----  ----- -----

TIMER3INIT/BSP                                ----- -----  ----- -----  ----- -----

INTERRUPTINIT/BSP                             ----- -----  ----- -----  ----- -----

LEDINIT/BSP                                   ----- -----  ----- -----  ----- -----

UART0INIT/BSP                                 ----- -----  ----- -----  ----- -----

EZMACPRO_INIT/EZMACPRO                        ----- -----  003DH 003EH  ----- -----
  +--> ?PR?_MACSPIREADREG?BSP
  +--> ?PR?_MACSPIWRITEREG?BSP
  +--> ?PR?EZMACPRO_STATEWAKEUPENTERED?P2P_D...
  +--> ?PR?_MACTIMEOUT?BSP
  +--> ?PR?_DELAY_MS?BSP
  +--> ?PR?_SETRFPARAMETERS?EZMACPRO
  +--> ?PR?_MACSPECIALREGISTERSETTINGS?EZMACPRO
  +--> ?PR?EZMACPRO_STATESLEEPENTERED?P2P_DE...

_MACSPIREADREG/BSP                            ----- -----  ----- -----  ----- -----

EZMACPRO_STATEWAKEUPENTERED/P2P_DEMO_...      ----- -----  ----- -----  ----- -----

_MACTIMEOUT/BSP                               ----- -----  0044H 004BH  ----- -----

_DELAY_MS/BSP                                 ----- -----  0044H 0047H  ----- -----

_SETRFPARAMETERS/EZMACPRO                     ----- -----  0046H 0047H  ----- -----
  +--> ?CO?BSP
  +--> ?PR?_MACSPIWRITEREG?BSP
  +--> ?CO?EZMACPRO_CONST

?CO?BSP                                       ----- -----  ----- -----  ----- -----

?CO?EZMACPRO_CONST                            ----- -----  ----- -----  ----- -----

_MACSPECIALREGISTERSETTINGS/EZMACPRO          ----- -----  ----- -----  ----- -----
  +--> ?PR?_MACSPIWRITEREG?BSP

VP2P_DEMO_TXINIT/P2P_DEMO_TX_NODE             ----- -----  003DH 003EH  ----- -----
  +--> ?PR?_EZMACPRO_REG_WRITE?EZMACPRO
  +--> ?PR?_DELAY_MS?BSP
  +--> ?CO?P2P_DEMO_TX_NODE
  +--> ?PR?PRINTF?PRINTF

_EZMACPRO_REG_WRITE/EZMACPRO                  ----- -----  0042H 0045H  ----- -----
  +--> ?PR?_MACSPIWRITEREG?BSP
  +--> ?PR?_SETRFPARAMETERS?EZMACPRO
  +--> ?PR?_MACUPDATEDYNAMICTIMEOUTS?EZMACPRO
  +--> ?CO?EZMACPRO_CONST
  +--> ?PR?_MACUPDATELBTI?EZMACPRO
  +--> ?PR?_MACSPIREADREG?BSP

_MACUPDATEDYNAMICTIMEOUTS/EZMACPRO            ----- -----  0046H 004DH  ----- -----
  +--> ?CO?EZMACPRO_CONST

_MACUPDATELBTI/EZMACPRO                       ----- -----  0046H 0046H  ----- -----
  +--> ?CO?EZMACPRO_CONST

?CO?P2P_DEMO_TX_NODE                          ----- -----  ----- -----  ----- -----

PRINTF/PRINTF                                 22H.1 23H.1  0042H 0055H  ----- -----
  +--> ?PR?PUTCHAR?PUTCHAR

LX51 LINKER/LOCATER V3.64                                                             04/10/2014  16:48:41  PAGE 9


PUTCHAR/PUTCHAR                               ----- -----  ----- -----  ----- -----

VP2P_DEMO_SENDPACKETGOTOSLEEP/P2P_DEM...      ----- -----  003DH 0041H  ----- -----
  +--> ?PR?_BITSET_XOR?P2P_DEMO_TX_NODE
  +--> ?PR?_EZMACPRO_REG_WRITE?EZMACPRO
  +--> ?PR?_EZMACPRO_TXBUF_WRITE?EZMACPRO
  +--> ?PR?EZMACPRO_WAKE_UP?EZMACPRO
  +--> ?PR?_DELAY_MS?BSP
  +--> ?CO?P2P_DEMO_TX_NODE
  +--> ?PR?PRINTF?PRINTF
  +--> ?PR?EZMACPRO_TRANSMIT?EZMACPRO

_BITSET_XOR/P2P_DEMO_TX_NODE                  ----- -----  0042H 0047H  ----- -----

_EZMACPRO_TXBUF_WRITE/EZMACPRO                ----- -----  0042H 0045H  ----- -----
  +--> ?PR?_MACSPIREADREG?BSP
  +--> ?PR?_MACSPIWRITEREG?BSP
  +--> ?PR?_MACSPIWRITEFIFO?BSP

_MACSPIWRITEFIFO/BSP                          ----- -----  ----- -----  ----- -----

EZMACPRO_WAKE_UP/EZMACPRO                     ----- -----  0042H 0043H  ----- -----
  +--> ?PR?_MACSPIWRITEREG?BSP
  +--> ?PR?_MACSETENABLE2?EZMACPRO
  +--> ?PR?_MACSPIREADREG?BSP
  +--> ?PR?_MACSETFUNCTION1?EZMACPRO
  +--> ?PR?_MACTIMEOUT?BSP
  +--> ?PR?EZMACPRO_STATEWAKEUPENTERED?P2P_D...
  +--> ?PR?_DELAY_MS?BSP

_MACSETENABLE2/EZMACPRO                       ----- -----  ----- -----  ----- -----
  +--> ?PR?_MACSPIWRITEREG?BSP

_MACSETFUNCTION1/EZMACPRO                     ----- -----  ----- -----  ----- -----
  +--> ?PR?_MACSPIWRITEREG?BSP

EZMACPRO_TRANSMIT/EZMACPRO                    ----- -----  0042H 0042H  ----- -----
  +--> ?PR?_MACSPIWRITEREG?BSP
  +--> ?PR?_MACSPIREADREG?BSP
  +--> ?PR?_MACSETENABLE2?EZMACPRO
  +--> ?PR?EZMACPRO_STATETXENTERED?P2P_DEMO_...
  +--> ?PR?_MACTIMEOUT?BSP
  +--> ?PR?_MACSETFUNCTION1?EZMACPRO

EZMACPRO_STATETXENTERED/P2P_DEMO_TX_C...      ----- -----  ----- -----  ----- -----

?C_INITSEG                                    ----- -----  ----- -----  ----- -----



PUBLIC SYMBOLS OF MODULE:  D:\01_project\20_안전모\02_source_EzMAC\EzMacPro(SI1000)\EZMacPRO reference C Code\applicatio
>> n\p2p_demo\tx_node\p2p_demo_tx_node_SI1000MB_KEIL.omf (EZMACPRO)


      VALUE       CLASS    TYPE      PUBLIC SYMBOL NAME
      =================================================
      00000042H   DATA     ---       ?_PRINTF517?BYTE
      00000042H   DATA     ---       ?_PRINTF?BYTE
      00000042H   DATA     ---       ?_SPRINTF517?BYTE
      00000042H   DATA     ---       ?_SPRINTF?BYTE
      01001363H   CODE     ---       ?C?CCASE
      0100122FH   CODE     ---       ?C?CLDOPTR
      0100133AH   CODE     ---       ?C?CLDPTR
      00000000H   NUMBER   ---       ?C?CODESEG
      0100126EH   CODE     ---       ?C?CSTOPTR
LX51 LINKER/LOCATER V3.64                                                             04/10/2014  16:48:41  PAGE 10


      0100125CH   CODE     ---       ?C?CSTPTR
      01001290H   CODE     ---       ?C?IMUL
      010012A2H   CODE     ---       ?C?LMUL
      0100130EH   CODE     ---       ?C?MEMSET
      01001302H   CODE     ---       ?C?OFFXADD
      01001353H   CODE     ---       ?C?PLDIIDATA
      010012F1H   CODE     ---       ?C?ULCMP
      00000000H   NUMBER   ---       ?C?XDATASEG
      01001A3FH   CODE     ---       ?C_START
      01000000H   CODE     ---       ?C_STARTUP
      010020C0H   CODE     ---       _bitSet_XOR
*DEL*:00000000H   CODE     ---       _Delay
      01001E62H   CODE     ---       _delay_ms
      01001C2AH   CODE     ---       _extIntGotoNextStateUsingSECR
      0100229CH   CODE     ---       _extIntIncrementError
      01000076H   CODE     ---       _extIntRX_StateMachine
      01002359H   CODE     ---       _extIntSetEnable2
      010021ECH   CODE     ---       _extIntSetFunction1
      010020F1H   CODE     ---       _extIntSpiReadFIFO
      010022EFH   CODE     ---       _extIntSpiReadReg
      010022D4H   CODE     ---       _extIntSpiWriteReg
      01002121H   CODE     ---       _extIntTimeout
      01000F79H   CODE     ---       _extIntTX_StateMachine
      01001F90H   CODE     ---       _extIntWakeUp
      010015E2H   CODE     ---       _EZMacPRO_Ack_Write
      01002449H   CODE     ---       _EZMacPRO_PacketReceived
*DEL*:00000000H   CODE     ---       _EZMacPRO_Reg_Read
      01000791H   CODE     ---       _EZMacPRO_Reg_Write
*DEL*:00000000H   CODE     ---       _EZMacPRO_RxBuf_Read
      01001BA7H   CODE     ---       _EZMacPRO_TxBuf_Write
      01002340H   CODE     ---       _macSetEnable2
      0100227AH   CODE     ---       _macSetFunction1
      010023EFH   CODE     ---       _macSpecialRegisterSettings
      010021C6H   CODE     ---       _macSpiReadReg
      01002050H   CODE     ---       _macSpiWriteFIFO
      010021A0H   CODE     ---       _macSpiWriteReg
      01001F4BH   CODE     ---       _macTimeout
      01000E1CH   CODE     ---       _macUpdateDynamicTimeouts
      01001EB1H   CODE     ---       _macUpdateLBTI
      01000497H   CODE     ---       _PRINTF
      01000497H   CODE     ---       _PRINTF517
      01002179H   CODE     ---       _PUTCHAR
      01000A59H   CODE     ---       _SetRfParameters
      01000491H   CODE     ---       _SPRINTF
      01000491H   CODE     ---       _SPRINTF517
*DEL*:00000000H   CODE     ---       _Timer0Start
*DEL*:00000000H   CODE     ---       _Timer2BusyWait_ms
      01001D22H   CODE     ---       _timerIntGotoNextStateUsingSECR
      010022B8H   CODE     ---       _timerIntIncrementError
      0100193AH   CODE     ---       _timerIntRX_StateMachine
      01002372H   CODE     ---       _timerIntSetEnable2
      01002210H   CODE     ---       _timerIntSetFunction1
      01002325H   CODE     ---       _timerIntSpiReadReg
      0100230AH   CODE     ---       _timerIntSpiWriteReg
      0100214DH   CODE     ---       _timerIntTimeout
      01000C76H   CODE     ---       _timerIntTX_StateMachine
      02000004H   XDATA    ---       abRfPayload
      020000AEH   XDATA    ---       AckBuffer
      0000006EH   DATA     BYTE      AckBufSize
      010023B7H   CODE     ---       BoardInit
      02000000H   XDATA    BYTE      bPacketLength
      0000005AH   DATA     BYTE      BusyLBT
      00000011H   DATA     BYTE      ChannelOccupiedCounter
      00000010H   DATA     BYTE      ChannelOccupiedInStartPeriod
      02000001H   XDATA    BYTE      DEMO_SR
LX51 LINKER/LOCATER V3.64                                                             04/10/2014  16:48:41  PAGE 11


      01001A84H   CODE     ---       externalIntISR
      01001B20H   CODE     ---       extIntBadAddrError
      010023FEH   CODE     ---       extIntDisableInterrupts
      01001EFFH   CODE     ---       extIntHeaderError
      01002089H   CODE     ---       extIntNextRX_Channel
      010023DEH   CODE     ---       EZMacPRO_AckSending
      01002472H   CODE     ---       EZMacPRO_AckTimeout
      01002475H   CODE     ---       EZMacPRO_CRCError
*DEL*:00000000H   CODE     ---       EZMacPRO_Idle
      01001389H   CODE     ---       EZMacPRO_Init
      0100246FH   CODE     ---       EZMacPRO_LBTTimeout
      01002460H   CODE     ---       EZMacPRO_LFTimerExpired
      01002463H   CODE     ---       EZMacPRO_LowBattery
      01002469H   CODE     ---       EZMacPRO_PacketDiscarded
      0100246CH   CODE     ---       EZMacPRO_PacketSent
*DEL*:00000000H   CODE     ---       EZMacPRO_Receive
*DEL*:00000000H   CODE     ---       EZMacPRO_Sleep
      0100245DH   CODE     ---       EZMacPRO_StateErrorEntered
      01002457H   CODE     ---       EZMacPRO_StateIdleEntered
*DEL*:00000000H   CODE     ---       EZMacPRO_StateRxEntered
      01002454H   CODE     ---       EZMacPRO_StateSleepEntered
      0100245AH   CODE     ---       EZMacPRO_StateTxEntered
      01002451H   CODE     ---       EZMacPRO_StateWakeUpEntered
      01002466H   CODE     ---       EZMacPRO_SyncWordReceived
      010014C3H   CODE     ---       EZMacPRO_Transmit
      01001D9EH   CODE     ---       EZMacPRO_Wake_Up
      01000064H   CODE     ---       EZMacProByteTime
      0000005BH   DATA     BYTE      EZMacProCurrentChannel
      00000067H   DATA     BYTE      EZMacProLBT_Retrys
      00000068H   DATA     BYTE      EZMacProRandomNumber
      00000066H   DATA     BYTE      EZMacProReceiveStatus
      00000077H   IDATA    ---       EZMacProReg
      0000006DH   DATA     BYTE      EZMacProRSSIvalue
      0000005CH   DATA     BYTE      EZMacProSequenceNumber
      0000000CH   DATA     WORD      EZMacProTimerMSB
      00000020H.7 BIT      BIT       fEZMacPRO_AckSending
      00000021H.7 BIT      BIT       fEZMacPRO_AckTimeout
      00000021H.2 BIT      BIT       fEZMacPRO_CRCError
      00000020H.5 BIT      BIT       fEZMacPRO_LBTTimeout
      00000021H.4 BIT      BIT       fEZMacPRO_LFTimerExpired
      00000020H.0 BIT      BIT       fEZMacPRO_LowBattery
      00000021H.1 BIT      BIT       fEZMacPRO_PacketDiscarded
      00000021H.5 BIT      BIT       fEZMacPRO_PacketForwarding
      00000022H.0 BIT      BIT       fEZMacPRO_PacketReceived
      00000021H.6 BIT      BIT       fEZMacPRO_PacketSent
      00000021H.0 BIT      BIT       fEZMacPRO_StateErrorEntered
      00000020H.6 BIT      BIT       fEZMacPRO_StateIdleEntered
      00000020H.1 BIT      BIT       fEZMacPRO_StateRxEntered
      00000020H.4 BIT      BIT       fEZMacPRO_StateSleepEntered
      00000020H.2 BIT      BIT       fEZMacPRO_StateTxEntered
      00000020H.3 BIT      BIT       fEZMacPRO_StateWakeUpEntered
      00000021H.3 BIT      BIT       fEZMacPRO_SyncWordReceived
      00000023H.2 BIT      BIT       fHeaderErrorOccurred
      01000032H   CODE     ---       FrequencyTable
      0100006CH   CODE     ---       InterruptInit
      0000000EH   DATA     BYTE      intStatus1
      0000000FH   DATA     BYTE      intStatus2
      020000BEH   XDATA    ---       lcd_data
      0100244EH   CODE     ---       LEDInit
      01002441H   CODE     ---       main
      01000006H   CODE     ---       Parameters
      01001E11H   CODE     ---       PortInit
      0000005DH   DATA     BYTE      PreamRegValue
      02000044H   XDATA    ---       printBuf
      01002014H   CODE     ---       RfSettingsB1
LX51 LINKER/LOCATER V3.64                                                             04/10/2014  16:48:41  PAGE 12


      0200006EH   XDATA    ---       RxBuffer
*DEL*:00000000H   CODE     ---       Spi0Init
      0100241CH   CODE     ---       Spi1Init
      0200006CH   XDATA    BYTE      STATE_CHANGE_SOS
      02000003H   XDATA    BYTE      STATE_MAG_SW
      0200006DH   XDATA    BYTE      STATE_SOS_SW
      010016DEH   CODE     ---       StateMachine
      01002437H   CODE     ---       StateMachine_Init
      010023CCH   CODE     ---       SystemClkInit
      00000069H   DATA     DWORD     TimeoutACK
      00000056H   DATA     DWORD     TimeoutChannelSearch
      0000005EH   DATA     DWORD     TimeoutLBTI
      0000006FH   DATA     DWORD     TimeoutRX_Packet
      00000062H   DATA     DWORD     TimeoutSyncWord
      00000073H   DATA     DWORD     TimeoutTX_Packet
*DEL*:00000000H   CODE     ---       Timer0Init
      00000008H   DATA     WORD      Timer0MSB
      0000000AH   DATA     WORD      Timer0MSB_save
*DEL*:00000000H   CODE     ---       Timer0Stop
*DEL*:00000000H   CODE     ---       Timer2Init
      010023A1H   CODE     ---       Timer3Init
      0100240DH   CODE     ---       timerIntDisableInterrupts
      01001FD3H   CODE     ---       timerIntNextRX_Channel
      0100238BH   CODE     ---       timerIntRandom
      01001CA6H   CODE     ---       timerIntT3_ISR
      0100242BH   CODE     ---       timerIntWakeUp
      01002234H   CODE     ---       Uart0Init
      010010D5H   CODE     ---       vP2P_demo_SendPacketGoToSleep
      0100187FH   CODE     ---       vP2P_demo_TxInit
      02000002H   XDATA    BYTE      wPacketCounter



SYMBOL TABLE OF MODULE:  D:\01_project\20_안전모\02_source_EzMAC\EzMacPro(SI1000)\EZMacPRO reference C Code\application\
>> p2p_demo\tx_node\p2p_demo_tx_node_SI1000MB_KEIL.omf (EZMACPRO)

      VALUE       REP       CLASS    TYPE      SYMBOL NAME
      ====================================================
      ---         MODULE    ---      ---       EZMACPRO
      020000AEH   PUBLIC    XDATA    ---       ACKBUFFER
      00000073H   PUBLIC    DATA     DWORD     TIMEOUTTX_PACKET
      0000006FH   PUBLIC    DATA     DWORD     TIMEOUTRX_PACKET
      0000006EH   PUBLIC    DATA     BYTE      ACKBUFSIZE
      0000006DH   PUBLIC    DATA     BYTE      EZMACPRORSSIVALUE
      00000069H   PUBLIC    DATA     DWORD     TIMEOUTACK
      00000068H   PUBLIC    DATA     BYTE      EZMACPRORANDOMNUMBER
      00000067H   PUBLIC    DATA     BYTE      EZMACPROLBT_RETRYS
      00000066H   PUBLIC    DATA     BYTE      EZMACPRORECEIVESTATUS
      00000062H   PUBLIC    DATA     DWORD     TIMEOUTSYNCWORD
      0200006EH   PUBLIC    XDATA    ---       RXBUFFER
      0000005EH   PUBLIC    DATA     DWORD     TIMEOUTLBTI
      0000005DH   PUBLIC    DATA     BYTE      PREAMREGVALUE
      0000005CH   PUBLIC    DATA     BYTE      EZMACPROSEQUENCENUMBER
      0000005BH   PUBLIC    DATA     BYTE      EZMACPROCURRENTCHANNEL
      0000005AH   PUBLIC    DATA     BYTE      BUSYLBT
      00000077H   PUBLIC    IDATA    ---       EZMACPROREG
      00000056H   PUBLIC    DATA     DWORD     TIMEOUTCHANNELSEARCH
      00000023H.2 PUBLIC    BIT      BIT       FHEADERERROROCCURRED
      01001EB1H   PUBLIC    CODE     ---       _MACUPDATELBTI
      0100227AH   PUBLIC    CODE     ---       _MACSETFUNCTION1
      01002340H   PUBLIC    CODE     ---       _MACSETENABLE2
      01000E1CH   PUBLIC    CODE     ---       _MACUPDATEDYNAMICTIMEOUTS
      010023EFH   PUBLIC    CODE     ---       _MACSPECIALREGISTERSETTINGS
      01000A59H   PUBLIC    CODE     ---       _SETRFPARAMETERS
      010015E2H   PUBLIC    CODE     ---       _EZMACPRO_ACK_WRITE
LX51 LINKER/LOCATER V3.64                                                             04/10/2014  16:48:41  PAGE 13


      01001BA7H   PUBLIC    CODE     ---       _EZMACPRO_TXBUF_WRITE
      01000791H   PUBLIC    CODE     ---       _EZMACPRO_REG_WRITE
      010014C3H   PUBLIC    CODE     ---       EZMACPRO_TRANSMIT
      01001D9EH   PUBLIC    CODE     ---       EZMACPRO_WAKE_UP
      01001389H   PUBLIC    CODE     ---       EZMACPRO_INIT
      00000000H   SYMBOL    CODE     WORD      _ICE_DUMMY_
      01001389H   BLOCK     ---      ---       LVL=1
      01001389H   BLOCK     ---      ---       LVL=2
      00000007H   SYMBOL    DATA     BYTE      temp8
      0000003DH   SYMBOL    DATA     WORD      timeout
      ---         BLOCKEND  ---      ---       LVL=1
      01001389H   LINE      CODE     ---       #90
      01001389H   LINE      CODE     ---       #91
      01001389H   LINE      CODE     ---       #94
      0100138EH   LINE      CODE     ---       #96
      01001390H   LINE      CODE     ---       #97
      0100139AH   LINE      CODE     ---       #98
      0100139EH   LINE      CODE     ---       #99
      010013A1H   LINE      CODE     ---       #100
      010013A4H   LINE      CODE     ---       #101
      010013A7H   LINE      CODE     ---       #103
      010013ABH   LINE      CODE     ---       #104
      010013AEH   LINE      CODE     ---       #105
      010013B1H   LINE      CODE     ---       #111
      010013B5H   LINE      CODE     ---       #112
      010013B9H   LINE      CODE     ---       #113
      010013BCH   LINE      CODE     ---       #114
      010013C0H   LINE      CODE     ---       #115
      010013C3H   LINE      CODE     ---       #116
      010013C7H   LINE      CODE     ---       #118
      010013CBH   LINE      CODE     ---       #119
      010013CEH   LINE      CODE     ---       #121
      010013D2H   LINE      CODE     ---       #122
      010013D5H   LINE      CODE     ---       #125
      010013DAH   LINE      CODE     ---       #126
      010013DFH   LINE      CODE     ---       #127
      010013E1H   LINE      CODE     ---       #130
      010013E8H   LINE      CODE     ---       #131
      010013EFH   LINE      CODE     ---       #135
      010013F3H   LINE      CODE     ---       #137
      010013F6H   LINE      CODE     ---       #140
      010013FDH   LINE      CODE     ---       #143
      01001408H   LINE      CODE     ---       #145
      0100140DH   LINE      CODE     ---       #149
      01001413H   LINE      CODE     ---       #150
      0100141AH   LINE      CODE     ---       #151
      01001424H   LINE      CODE     ---       #152
      0100142AH   LINE      CODE     ---       #153
      0100142CH   LINE      CODE     ---       #154
      0100142CH   LINE      CODE     ---       #155
      01001433H   LINE      CODE     ---       #156
      0100143BH   LINE      CODE     ---       #157
      0100143BH   LINE      CODE     ---       #158
      0100143DH   LINE      CODE     ---       #161
      01001444H   LINE      CODE     ---       #162
      0100144BH   LINE      CODE     ---       #167
      01001451H   LINE      CODE     ---       #169
      01001455H   LINE      CODE     ---       #172
      0100145CH   LINE      CODE     ---       #182
      01001463H   LINE      CODE     ---       #184
      0100146AH   LINE      CODE     ---       #185
      01001471H   LINE      CODE     ---       #188
      01001478H   LINE      CODE     ---       #192
      0100147FH   LINE      CODE     ---       #193
      01001486H   LINE      CODE     ---       #194
LX51 LINKER/LOCATER V3.64                                                             04/10/2014  16:48:41  PAGE 14


      0100148DH   LINE      CODE     ---       #197
      01001494H   LINE      CODE     ---       #200
      0100149BH   LINE      CODE     ---       #203
      010014A2H   LINE      CODE     ---       #206
      010014A9H   LINE      CODE     ---       #224
      010014ADH   LINE      CODE     ---       #227
      010014B2H   LINE      CODE     ---       #244
      010014B9H   LINE      CODE     ---       #247
      010014BDH   LINE      CODE     ---       #249
      010014C0H   LINE      CODE     ---       #259
      010014C2H   LINE      CODE     ---       #261
      ---         BLOCKEND  ---      ---       LVL=0
      00000000H   BLOCK     ---      ---       LVL=1
      ---         BLOCKEND  ---      ---       LVL=0
      01001D9EH   BLOCK     ---      ---       LVL=1
      01001D9EH   BLOCK     ---      ---       LVL=2
      00000042H   SYMBOL    DATA     WORD      timeout
      ---         BLOCKEND  ---      ---       LVL=1
      01001D9EH   LINE      CODE     ---       #305
      01001D9EH   LINE      CODE     ---       #306
      01001D9EH   LINE      CODE     ---       #308
      01001DA3H   LINE      CODE     ---       #309
      01001DA3H   LINE      CODE     ---       #310
      01001DA8H   LINE      CODE     ---       #313
      01001DAEH   LINE      CODE     ---       #315
      01001DB3H   LINE      CODE     ---       #318
      01001DB8H   LINE      CODE     ---       #319
      01001DBDH   LINE      CODE     ---       #320
      01001DBFH   LINE      CODE     ---       #323
      01001DC4H   LINE      CODE     ---       #325
      01001DCFH   LINE      CODE     ---       #327
      01001DD3H   LINE      CODE     ---       #329
      01001DD6H   LINE      CODE     ---       #331
      01001DDBH   LINE      CODE     ---       #334
      01001DE1H   LINE      CODE     ---       #335
      01001DE8H   LINE      CODE     ---       #336
      01001DF2H   LINE      CODE     ---       #337
      01001DF8H   LINE      CODE     ---       #338
      01001DFAH   LINE      CODE     ---       #339
      01001DFAH   LINE      CODE     ---       #340
      01001E01H   LINE      CODE     ---       #341
      01001E09H   LINE      CODE     ---       #342
      01001E09H   LINE      CODE     ---       #343
      01001E0BH   LINE      CODE     ---       #345
      01001E0EH   LINE      CODE     ---       #346
      01001E0EH   LINE      CODE     ---       #348
      01001E10H   LINE      CODE     ---       #349
      ---         BLOCKEND  ---      ---       LVL=0
      00000000H   BLOCK     ---      ---       LVL=1
      ---         BLOCKEND  ---      ---       LVL=0
      010014C3H   BLOCK     ---      ---       LVL=1
      010014C3H   BLOCK     ---      ---       LVL=2
      00000042H   SYMBOL    DATA     BYTE      temp8
      ---         BLOCKEND  ---      ---       LVL=1
      010014C3H   LINE      CODE     ---       #416
      010014C3H   LINE      CODE     ---       #417
      010014C3H   LINE      CODE     ---       #421
      010014CAH   LINE      CODE     ---       #422
      010014CDH   LINE      CODE     ---       #424
      010014D2H   LINE      CODE     ---       #464
      010014D8H   LINE      CODE     ---       #465
      010014D8H   LINE      CODE     ---       #467
      010014E1H   LINE      CODE     ---       #468
      010014E4H   LINE      CODE     ---       #469
      010014E6H   LINE      CODE     ---       #471
LX51 LINKER/LOCATER V3.64                                                             04/10/2014  16:48:41  PAGE 15


      010014E6H   LINE      CODE     ---       #473
      010014EBH   LINE      CODE     ---       #475
      010014F3H   LINE      CODE     ---       #476
      010014FFH   LINE      CODE     ---       #477
      01001502H   LINE      CODE     ---       #478
      01001502H   LINE      CODE     ---       #490
      0100150CH   LINE      CODE     ---       #491
      01001512H   LINE      CODE     ---       #492
      01001515H   LINE      CODE     ---       #494
      0100151CH   LINE      CODE     ---       #495
      01001520H   LINE      CODE     ---       #497
      01001523H   LINE      CODE     ---       #499
      0100152AH   LINE      CODE     ---       #502
      01001534H   LINE      CODE     ---       #503
      01001534H   LINE      CODE     ---       #504
      01001537H   LINE      CODE     ---       #505
      01001540H   LINE      CODE     ---       #506
      01001549H   LINE      CODE     ---       #507
      0100154FH   LINE      CODE     ---       #508
      01001551H   LINE      CODE     ---       #510
      01001551H   LINE      CODE     ---       #511
      01001554H   LINE      CODE     ---       #512
      0100155DH   LINE      CODE     ---       #513
      01001566H   LINE      CODE     ---       #514
      01001566H   LINE      CODE     ---       #518
      01001570H   LINE      CODE     ---       #519
      01001570H   LINE      CODE     ---       #521
      01001579H   LINE      CODE     ---       #524
      0100157EH   LINE      CODE     ---       #525
      01001583H   LINE      CODE     ---       #529
      0100158AH   LINE      CODE     ---       #531
      0100158FH   LINE      CODE     ---       #533
      01001592H   LINE      CODE     ---       #534
      01001594H   LINE      CODE     ---       #536
      01001598H   LINE      CODE     ---       #538
      0100159BH   LINE      CODE     ---       #542
      010015A6H   LINE      CODE     ---       #544
      010015ABH   LINE      CODE     ---       #545
      010015ABH   LINE      CODE     ---       #546
      010015ADH   LINE      CODE     ---       #547
      010015ADH   LINE      CODE     ---       #551
      010015B4H   LINE      CODE     ---       #553
      010015B9H   LINE      CODE     ---       #555
      010015BEH   LINE      CODE     ---       #556
      010015C3H   LINE      CODE     ---       #558
      010015C8H   LINE      CODE     ---       #560
      010015D3H   LINE      CODE     ---       #561
      010015D7H   LINE      CODE     ---       #563
      010015DAH   LINE      CODE     ---       #564
      010015DFH   LINE      CODE     ---       #566
      010015E1H   LINE      CODE     ---       #567
      ---         BLOCKEND  ---      ---       LVL=0
      00000000H   BLOCK     ---      ---       LVL=1
      00000000H   BLOCK     ---      ---       LVL=2
      ---         BLOCKEND  ---      ---       LVL=1
      ---         BLOCKEND  ---      ---       LVL=0
      01000791H   BLOCK     ---      ---       LVL=1
      00000042H   SYMBOL    DATA     BYTE      name
      00000043H   SYMBOL    DATA     BYTE      value
      01000795H   BLOCK     ---      ---       LVL=2
      00000044H   SYMBOL    DATA     BYTE      temp8
      00000045H   SYMBOL    DATA     BYTE      temp8_2
      ---         BLOCKEND  ---      ---       LVL=1
      01000791H   LINE      CODE     ---       #680
      01000795H   LINE      CODE     ---       #681
LX51 LINKER/LOCATER V3.64                                                             04/10/2014  16:48:41  PAGE 16


      01000795H   LINE      CODE     ---       #686
      0100079CH   LINE      CODE     ---       #687
      0100079FH   LINE      CODE     ---       #690
      010007A6H   LINE      CODE     ---       #691
      010007A9H   LINE      CODE     ---       #693
      01000829H   LINE      CODE     ---       #694
      01000829H   LINE      CODE     ---       #697
      01000829H   LINE      CODE     ---       #700
      0100082EH   LINE      CODE     ---       #702
      01000832H   LINE      CODE     ---       #705
      01000839H   LINE      CODE     ---       #716
      0100083EH   LINE      CODE     ---       #717
      01000847H   LINE      CODE     ---       #721
      01000851H   LINE      CODE     ---       #722
      01000868H   LINE      CODE     ---       #723
      01000868H   LINE      CODE     ---       #724
      01000868H   LINE      CODE     ---       #725
      0100086AH   LINE      CODE     ---       #726
      0100086AH   LINE      CODE     ---       #727
      01000871H   LINE      CODE     ---       #728
      01000871H   LINE      CODE     ---       #729
      01000871H   LINE      CODE     ---       #730
      01000873H   LINE      CODE     ---       #731
      01000873H   LINE      CODE     ---       #732
      0100088CH   LINE      CODE     ---       #733
      0100088CH   LINE      CODE     ---       #734
      0100088CH   LINE      CODE     ---       #735
      0100088EH   LINE      CODE     ---       #736
      0100088EH   LINE      CODE     ---       #738
      01000895H   LINE      CODE     ---       #739
      01000895H   LINE      CODE     ---       #740
      01000897H   LINE      CODE     ---       #741
      0100089AH   LINE      CODE     ---       #742
      0100089AH   LINE      CODE     ---       #745
      010008A1H   LINE      CODE     ---       #748
      010008A9H   LINE      CODE     ---       #749
      010008A9H   LINE      CODE     ---       #750
      010008B0H   LINE      CODE     ---       #751
      010008B7H   LINE      CODE     ---       #752
      010008B7H   LINE      CODE     ---       #754
      010008BAH   LINE      CODE     ---       #755
      010008BAH   LINE      CODE     ---       #756
      010008BAH   LINE      CODE     ---       #757
      010008BAH   LINE      CODE     ---       #759
      010008C1H   LINE      CODE     ---       #769
      010008C6H   LINE      CODE     ---       #771
      010008C9H   LINE      CODE     ---       #772
      010008C9H   LINE      CODE     ---       #773
      010008C9H   LINE      CODE     ---       #775
      010008D4H   LINE      CODE     ---       #776
      010008D7H   LINE      CODE     ---       #777
      010008D7H   LINE      CODE     ---       #778
      010008D7H   LINE      CODE     ---       #780
      010008D7H   LINE      CODE     ---       #782
      010008D7H   LINE      CODE     ---       #784
      010008D7H   LINE      CODE     ---       #789
      010008E0H   LINE      CODE     ---       #791
      010008F9H   LINE      CODE     ---       #792
      010008FCH   LINE      CODE     ---       #793
      010008FCH   LINE      CODE     ---       #890
      010008FCH   LINE      CODE     ---       #892
      01000906H   LINE      CODE     ---       #893
      01000909H   LINE      CODE     ---       #900
      01000909H   LINE      CODE     ---       #902
      01000909H   LINE      CODE     ---       #903
LX51 LINKER/LOCATER V3.64                                                             04/10/2014  16:48:41  PAGE 17


      01000909H   LINE      CODE     ---       #904
      01000909H   LINE      CODE     ---       #905
      01000909H   LINE      CODE     ---       #906
      01000909H   LINE      CODE     ---       #907
      01000909H   LINE      CODE     ---       #908
      01000909H   LINE      CODE     ---       #909
      01000909H   LINE      CODE     ---       #911
      01000909H   LINE      CODE     ---       #912
      01000909H   LINE      CODE     ---       #913
      01000909H   LINE      CODE     ---       #914
      01000909H   LINE      CODE     ---       #915
      01000909H   LINE      CODE     ---       #916
      01000909H   LINE      CODE     ---       #917
      01000909H   LINE      CODE     ---       #918
      01000909H   LINE      CODE     ---       #919
      01000909H   LINE      CODE     ---       #920
      01000910H   LINE      CODE     ---       #921
      01000913H   LINE      CODE     ---       #923
      0100091CH   LINE      CODE     ---       #924
      0100091FH   LINE      CODE     ---       #925
      0100091FH   LINE      CODE     ---       #928
      0100091FH   LINE      CODE     ---       #929
      0100091FH   LINE      CODE     ---       #932
      0100091FH   LINE      CODE     ---       #933
      0100091FH   LINE      CODE     ---       #936
      0100091FH   LINE      CODE     ---       #938
      0100091FH   LINE      CODE     ---       #941
      0100091FH   LINE      CODE     ---       #942
      0100091FH   LINE      CODE     ---       #943
      01000925H   LINE      CODE     ---       #945
      0100092CH   LINE      CODE     ---       #947
      0100092FH   LINE      CODE     ---       #948
      0100092FH   LINE      CODE     ---       #949
      0100092FH   LINE      CODE     ---       #950
      01000934H   LINE      CODE     ---       #951
      01000937H   LINE      CODE     ---       #952
      0100093FH   LINE      CODE     ---       #954
      01000944H   LINE      CODE     ---       #957
      01000946H   LINE      CODE     ---       #958
      01000949H   LINE      CODE     ---       #959
      01000949H   LINE      CODE     ---       #962
      01000949H   LINE      CODE     ---       #963
      01000949H   LINE      CODE     ---       #966
      01000949H   LINE      CODE     ---       #967
      01000949H   LINE      CODE     ---       #969
      0100094CH   LINE      CODE     ---       #970
      0100094CH   LINE      CODE     ---       #971
      0100094CH   LINE      CODE     ---       #972
      01000954H   LINE      CODE     ---       #974
      01000959H   LINE      CODE     ---       #977
      0100095BH   LINE      CODE     ---       #978
      0100095EH   LINE      CODE     ---       #979
      0100095EH   LINE      CODE     ---       #981
      01000965H   LINE      CODE     ---       #982
      01000968H   LINE      CODE     ---       #984
      01000968H   LINE      CODE     ---       #985
      0100096CH   LINE      CODE     ---       #986
      0100096CH   LINE      CODE     ---       #987
      0100096FH   LINE      CODE     ---       #991
      0100096FH   LINE      CODE     ---       #992
      01000974H   LINE      CODE     ---       #993
      01000977H   LINE      CODE     ---       #994
      01000977H   LINE      CODE     ---       #995
      01000977H   LINE      CODE     ---       #997
      01000977H   LINE      CODE     ---       #999
LX51 LINKER/LOCATER V3.64                                                             04/10/2014  16:48:41  PAGE 18


      0100097BH   LINE      CODE     ---       #1000
      0100097EH   LINE      CODE     ---       #1001
      0100097EH   LINE      CODE     ---       #1003
      01000982H   LINE      CODE     ---       #1004
      01000985H   LINE      CODE     ---       #1005
      01000985H   LINE      CODE     ---       #1007
      0100098FH   LINE      CODE     ---       #1008
      01000996H   LINE      CODE     ---       #1009
      0100099FH   LINE      CODE     ---       #1010
      010009A4H   LINE      CODE     ---       #1011
      010009A4H   LINE      CODE     ---       #1012
      010009A7H   LINE      CODE     ---       #1013
      010009AAH   LINE      CODE     ---       #1014
      010009ACH   LINE      CODE     ---       #1016
      010009ACH   LINE      CODE     ---       #1017
      010009AFH   LINE      CODE     ---       #1018
      010009B2H   LINE      CODE     ---       #1019
      010009B2H   LINE      CODE     ---       #1020
      010009B9H   LINE      CODE     ---       #1021
      010009C0H   LINE      CODE     ---       #1023
      010009C7H   LINE      CODE     ---       #1024
      010009CCH   LINE      CODE     ---       #1025
      010009CCH   LINE      CODE     ---       #1026
      010009CFH   LINE      CODE     ---       #1027
      010009D1H   LINE      CODE     ---       #1029
      010009D1H   LINE      CODE     ---       #1030
      010009D4H   LINE      CODE     ---       #1031
      010009D4H   LINE      CODE     ---       #1032
      010009DBH   LINE      CODE     ---       #1033
      010009DDH   LINE      CODE     ---       #1034
      010009DFH   LINE      CODE     ---       #1035
      010009DFH   LINE      CODE     ---       #1036
      010009E4H   LINE      CODE     ---       #1037
      010009E4H   LINE      CODE     ---       #1038
      010009E8H   LINE      CODE     ---       #1039
      010009EEH   LINE      CODE     ---       #1041
      010009F5H   LINE      CODE     ---       #1042
      010009FFH   LINE      CODE     ---       #1044
      01000A06H   LINE      CODE     ---       #1045
      01000A0AH   LINE      CODE     ---       #1046
      01000A0CH   LINE      CODE     ---       #1048
      01000A0CH   LINE      CODE     ---       #1049
      01000A13H   LINE      CODE     ---       #1050
      01000A1DH   LINE      CODE     ---       #1052
      01000A24H   LINE      CODE     ---       #1053
      01000A2BH   LINE      CODE     ---       #1054
      01000A2BH   LINE      CODE     ---       #1055
      01000A2DH   LINE      CODE     ---       #1056
      01000A2DH   LINE      CODE     ---       #1058
      01000A37H   LINE      CODE     ---       #1061
      01000A3EH   LINE      CODE     ---       #1063
      01000A4FH   LINE      CODE     ---       #1064
      01000A4FH   LINE      CODE     ---       #1066
      01000A4FH   LINE      CODE     ---       #1068
      01000A4FH   LINE      CODE     ---       #1069
      01000A4FH   LINE      CODE     ---       #1075
      01000A4FH   LINE      CODE     ---       #1077
      01000A4FH   LINE      CODE     ---       #1079
      01000A56H   LINE      CODE     ---       #1080
      01000A58H   LINE      CODE     ---       #1082
      ---         BLOCKEND  ---      ---       LVL=0
      00000000H   BLOCK     ---      ---       LVL=1
      ---         BLOCKEND  ---      ---       LVL=0
      01001BA7H   BLOCK     ---      ---       LVL=1
      00000042H   SYMBOL    DATA     BYTE      length
LX51 LINKER/LOCATER V3.64                                                             04/10/2014  16:48:41  PAGE 19


      00000043H   SYMBOL    DATA     ---       payload
      01001BADH   BLOCK     ---      ---       LVL=2
      00000045H   SYMBOL    DATA     BYTE      temp8
      ---         BLOCKEND  ---      ---       LVL=1
      01001BA7H   LINE      CODE     ---       #1158
      01001BADH   LINE      CODE     ---       #1159
      01001BADH   LINE      CODE     ---       #1163
      01001BB4H   LINE      CODE     ---       #1164
      01001BB7H   LINE      CODE     ---       #1167
      01001BBEH   LINE      CODE     ---       #1168
      01001BC1H   LINE      CODE     ---       #1171
      01001BC8H   LINE      CODE     ---       #1172
      01001BCBH   LINE      CODE     ---       #1173
      01001BD2H   LINE      CODE     ---       #1174
      01001BD5H   LINE      CODE     ---       #1175
      01001BDCH   LINE      CODE     ---       #1179
      01001BE2H   LINE      CODE     ---       #1180
      01001BE2H   LINE      CODE     ---       #1183
      01001BE9H   LINE      CODE     ---       #1184
      01001BEDH   LINE      CODE     ---       #1186
      01001BF3H   LINE      CODE     ---       #1187
      01001BF5H   LINE      CODE     ---       #1190
      01001BF5H   LINE      CODE     ---       #1192
      01001BFDH   LINE      CODE     ---       #1193
      01001BFDH   LINE      CODE     ---       #1195
      01001C06H   LINE      CODE     ---       #1198
      01001C11H   LINE      CODE     ---       #1199
      01001C1CH   LINE      CODE     ---       #1201
      01001C1CH   LINE      CODE     ---       #1203
      01001C1CH   LINE      CODE     ---       #1204
      01001C27H   LINE      CODE     ---       #1205
      01001C27H   LINE      CODE     ---       #1208
      01001C27H   LINE      CODE     ---       #1209
      01001C29H   LINE      CODE     ---       #1210
      ---         BLOCKEND  ---      ---       LVL=0
      00000000H   BLOCK     ---      ---       LVL=1
      00000082H   SYMBOL    DATA     ---       length
      00000004H   SYMBOL    DATA     ---       payload
      00000004H   BLOCK     ---      ---       LVL=2
      00000007H   SYMBOL    DATA     BYTE      temp8
      ---         BLOCKEND  ---      ---       LVL=1
      ---         BLOCKEND  ---      ---       LVL=0
      010015E2H   BLOCK     ---      ---       LVL=1
      00000028H   SYMBOL    DATA     BYTE      length
      00000029H   SYMBOL    DATA     ---       payload
      010015E8H   BLOCK     ---      ---       LVL=2
      00000007H   SYMBOL    DATA     BYTE      temp8
      ---         BLOCKEND  ---      ---       LVL=1
      010015E2H   LINE      CODE     ---       #1270
      010015E8H   LINE      CODE     ---       #1271
      010015E8H   LINE      CODE     ---       #1272
      010015E8H   LINE      CODE     ---       #1275
      010015EEH   LINE      CODE     ---       #1276
      010015F1H   LINE      CODE     ---       #1279
      010015F8H   LINE      CODE     ---       #1280
      010015FBH   LINE      CODE     ---       #1283
      01001601H   LINE      CODE     ---       #1284
      01001601H   LINE      CODE     ---       #1286
      01001608H   LINE      CODE     ---       #1289
      01001613H   LINE      CODE     ---       #1290
      0100162EH   LINE      CODE     ---       #1291
      0100162EH   LINE      CODE     ---       #1293
      0100162EH   LINE      CODE     ---       #1295
      01001636H   LINE      CODE     ---       #1296
      01001636H   LINE      CODE     ---       #1298
LX51 LINKER/LOCATER V3.64                                                             04/10/2014  16:48:41  PAGE 20


      0100163EH   LINE      CODE     ---       #1299
      01001659H   LINE      CODE     ---       #1301
      01001661H   LINE      CODE     ---       #1302
      01001670H   LINE      CODE     ---       #1303
      01001670H   LINE      CODE     ---       #1305
      01001670H   LINE      CODE     ---       #1307
      01001678H   LINE      CODE     ---       #1308
      01001678H   LINE      CODE     ---       #1310
      01001680H   LINE      CODE     ---       #1311
      0100169BH   LINE      CODE     ---       #1313
      010016A6H   LINE      CODE     ---       #1314
      010016B5H   LINE      CODE     ---       #1315
      010016B5H   LINE      CODE     ---       #1317
      010016B5H   LINE      CODE     ---       #1319
      010016C0H   LINE      CODE     ---       #1320
      010016DBH   LINE      CODE     ---       #1321
      010016DBH   LINE      CODE     ---       #1322
      010016DBH   LINE      CODE     ---       #1323
      010016DBH   LINE      CODE     ---       #1324
      010016DDH   LINE      CODE     ---       #1325
      ---         BLOCKEND  ---      ---       LVL=0
      01000A59H   BLOCK     ---      ---       LVL=1
      00000007H   SYMBOL    DATA     BYTE      mcr
      01000A59H   BLOCK     ---      ---       LVL=2
      00000046H   SYMBOL    DATA     BYTE      dataRate
      00000047H   SYMBOL    DATA     BYTE      numFreq
      ---         BLOCKEND  ---      ---       LVL=1
      01000A59H   LINE      CODE     ---       #1343
      01000A59H   LINE      CODE     ---       #1344
      01000A59H   LINE      CODE     ---       #1350
      01000A60H   LINE      CODE     ---       #1351
      01000A65H   LINE      CODE     ---       #1415
      01000A7CH   LINE      CODE     ---       #1416
      01000A93H   LINE      CODE     ---       #1417
      01000AAAH   LINE      CODE     ---       #1418
      01000AC1H   LINE      CODE     ---       #1419
      01000AD8H   LINE      CODE     ---       #1420
      01000AEFH   LINE      CODE     ---       #1421
      01000B06H   LINE      CODE     ---       #1422
      01000B1DH   LINE      CODE     ---       #1423
      01000B34H   LINE      CODE     ---       #1424
      01000B4BH   LINE      CODE     ---       #1425
      01000B62H   LINE      CODE     ---       #1426
      01000B79H   LINE      CODE     ---       #1427
      01000B90H   LINE      CODE     ---       #1428
      01000BA7H   LINE      CODE     ---       #1429
      01000BC5H   LINE      CODE     ---       #1432
      01000BDCH   LINE      CODE     ---       #1433
      01000BF3H   LINE      CODE     ---       #1434
      01000C0AH   LINE      CODE     ---       #1435
      01000C21H   LINE      CODE     ---       #1443
      01000C25H   LINE      CODE     ---       #1444
      01000C25H   LINE      CODE     ---       #1446
      01000C32H   LINE      CODE     ---       #1447
      01000C34H   LINE      CODE     ---       #1448
      01000C39H   LINE      CODE     ---       #1449
      01000C39H   LINE      CODE     ---       #1451
      01000C46H   LINE      CODE     ---       #1452
      01000C48H   LINE      CODE     ---       #1453
      01000C4DH   LINE      CODE     ---       #1454
      01000C4DH   LINE      CODE     ---       #1456
      01000C5AH   LINE      CODE     ---       #1457
      01000C5CH   LINE      CODE     ---       #1459
      01000C5CH   LINE      CODE     ---       #1461
      01000C75H   LINE      CODE     ---       #1462
LX51 LINKER/LOCATER V3.64                                                             04/10/2014  16:48:41  PAGE 21


      01000C75H   LINE      CODE     ---       #1471
      ---         BLOCKEND  ---      ---       LVL=0
      010023EFH   BLOCK     ---      ---       LVL=1
      00000007H   SYMBOL    DATA     BYTE      chiptype
      010023EFH   LINE      CODE     ---       #1481
      010023EFH   LINE      CODE     ---       #1482
      010023EFH   LINE      CODE     ---       #1484
      010023EFH   LINE      CODE     ---       #1485
      010023EFH   LINE      CODE     ---       #1512
      010023EFH   LINE      CODE     ---       #1513
      010023EFH   LINE      CODE     ---       #1515
      010023F6H   LINE      CODE     ---       #1517
      010023FDH   LINE      CODE     ---       #1518
      010023FDH   LINE      CODE     ---       #1519
      010023FDH   LINE      CODE     ---       #1520
      ---         BLOCKEND  ---      ---       LVL=0
      01000E1CH   BLOCK     ---      ---       LVL=1
      00000046H   SYMBOL    DATA     BYTE      mcr
      00000047H   SYMBOL    DATA     BYTE      mpl
      01000E20H   BLOCK     ---      ---       LVL=2
      00000048H   SYMBOL    DATA     WORD      n
      0000004AH   SYMBOL    DATA     BYTE      preamble
      0000004BH   SYMBOL    DATA     CHAR      header
      0000004CH   SYMBOL    DATA     WORD      byteTime
      ---         BLOCKEND  ---      ---       LVL=1
      01000E1CH   LINE      CODE     ---       #1529
      01000E20H   LINE      CODE     ---       #1530
      01000E20H   LINE      CODE     ---       #1537
      01000E2DH   LINE      CODE     ---       #1538
      01000E47H   LINE      CODE     ---       #1542
      01000E67H   LINE      CODE     ---       #1560
      01000E6CH   LINE      CODE     ---       #1561
      01000E6CH   LINE      CODE     ---       #1562
      01000E6FH   LINE      CODE     ---       #1563
      01000E71H   LINE      CODE     ---       #1565
      01000E71H   LINE      CODE     ---       #1566
      01000E74H   LINE      CODE     ---       #1567
      01000E74H   LINE      CODE     ---       #1571
      01000E79H   LINE      CODE     ---       #1572
      01000E79H   LINE      CODE     ---       #1573
      01000E7BH   LINE      CODE     ---       #1574
      01000E7BH   LINE      CODE     ---       #1578
      01000E9CH   LINE      CODE     ---       #1581
      01000EC6H   LINE      CODE     ---       #1588
      01000ED6H   LINE      CODE     ---       #1589
      01000EF2H   LINE      CODE     ---       #1593
      01000F0BH   LINE      CODE     ---       #1594
      01000F26H   LINE      CODE     ---       #1599
      01000F2BH   LINE      CODE     ---       #1600
      01000F2BH   LINE      CODE     ---       #1604
      01000F2EH   LINE      CODE     ---       #1605
      01000F2EH   LINE      CODE     ---       #1607
      01000F47H   LINE      CODE     ---       #1609
      01000F62H   LINE      CODE     ---       #1610
      01000F78H   LINE      CODE     ---       #1623
      ---         BLOCKEND  ---      ---       LVL=0
      01002340H   BLOCK     ---      ---       LVL=1
      00000005H   SYMBOL    DATA     BYTE      value
      01002340H   LINE      CODE     ---       #1649
      01002342H   LINE      CODE     ---       #1650
      01002342H   LINE      CODE     ---       #1652
      01002348H   LINE      CODE     ---       #1653
      0100234BH   LINE      CODE     ---       #1655
      01002351H   LINE      CODE     ---       #1656
      01002354H   LINE      CODE     ---       #1658
LX51 LINKER/LOCATER V3.64                                                             04/10/2014  16:48:41  PAGE 22


      ---         BLOCKEND  ---      ---       LVL=0
      0100227AH   BLOCK     ---      ---       LVL=1
      00000005H   SYMBOL    DATA     BYTE      value
      0100227AH   LINE      CODE     ---       #1667
      0100227CH   LINE      CODE     ---       #1668
      0100227CH   LINE      CODE     ---       #1670
      01002282H   LINE      CODE     ---       #1671
      01002285H   LINE      CODE     ---       #1673
      0100228BH   LINE      CODE     ---       #1674
      0100228EH   LINE      CODE     ---       #1676
      01002294H   LINE      CODE     ---       #1677
      01002297H   LINE      CODE     ---       #1679
      ---         BLOCKEND  ---      ---       LVL=0
      01001EB1H   BLOCK     ---      ---       LVL=1
      00000046H   SYMBOL    DATA     BYTE      lbti
      01001EB3H   BLOCK     ---      ---       LVL=2
      00000007H   SYMBOL    DATA     BYTE      rate
      ---         BLOCKEND  ---      ---       LVL=1
      01001EB1H   LINE      CODE     ---       #1691
      01001EB3H   LINE      CODE     ---       #1692
      01001EB3H   LINE      CODE     ---       #1696
      01001EB8H   LINE      CODE     ---       #1697
      01001EB8H   LINE      CODE     ---       #1699
      01001EBEH   LINE      CODE     ---       #1700
      01001EC0H   LINE      CODE     ---       #1702
      01001EC0H   LINE      CODE     ---       #1704
      01001EC7H   LINE      CODE     ---       #1706
      01001EE2H   LINE      CODE     ---       #1707
      01001EE2H   LINE      CODE     ---       #1710
      01001EFEH   LINE      CODE     ---       #1711
      ---         BLOCKEND  ---      ---       LVL=0

      ---         MODULE    ---      ---       EZMACPRO_CONST
      01000064H   PUBLIC    CODE     ---       EZMACPROBYTETIME
      01000032H   PUBLIC    CODE     ---       FREQUENCYTABLE
      01000006H   PUBLIC    CODE     ---       PARAMETERS
      00000000H   SYMBOL    CODE     WORD      _ICE_DUMMY_

      ---         MODULE    ---      ---       EZMACPRO_EXTERNALINT
      0000000FH   PUBLIC    DATA     BYTE      INTSTATUS2
      0000000EH   PUBLIC    DATA     BYTE      INTSTATUS1
      01001B20H   PUBLIC    CODE     ---       EXTINTBADADDRERROR
      01001EFFH   PUBLIC    CODE     ---       EXTINTHEADERERROR
      010021ECH   PUBLIC    CODE     ---       _EXTINTSETFUNCTION1
      01002359H   PUBLIC    CODE     ---       _EXTINTSETENABLE2
      0100229CH   PUBLIC    CODE     ---       _EXTINTINCREMENTERROR
      01001C2AH   PUBLIC    CODE     ---       _EXTINTGOTONEXTSTATEUSINGSECR
      01002089H   PUBLIC    CODE     ---       EXTINTNEXTRX_CHANNEL
      010023FEH   PUBLIC    CODE     ---       EXTINTDISABLEINTERRUPTS
      01000076H   PUBLIC    CODE     ---       _EXTINTRX_STATEMACHINE
      01000F79H   PUBLIC    CODE     ---       _EXTINTTX_STATEMACHINE
      01001F90H   PUBLIC    CODE     ---       _EXTINTWAKEUP
      01001A84H   PUBLIC    CODE     ---       EXTERNALINTISR
      00000000H   SYMBOL    CODE     WORD      _ICE_DUMMY_
      01001A84H   BLOCK     ---      ---       LVL=1
      01001AA1H   BLOCK     ---      ---       LVL=2
      00000024H   SYMBOL    DATA     BYTE      state
      ---         BLOCKEND  ---      ---       LVL=1
      01001A84H   LINE      CODE     ---       #61
      01001AA1H   LINE      CODE     ---       #67
      01001AA3H   LINE      CODE     ---       #68
      01001AAAH   LINE      CODE     ---       #69
      01001AB1H   LINE      CODE     ---       #72
      01001ABAH   LINE      CODE     ---       #73
      01001ABAH   LINE      CODE     ---       #74
LX51 LINKER/LOCATER V3.64                                                             04/10/2014  16:48:41  PAGE 23


      01001AC1H   LINE      CODE     ---       #76
      01001AC5H   LINE      CODE     ---       #77
      01001AC5H   LINE      CODE     ---       #78
      01001ACAH   LINE      CODE     ---       #79
      01001ACCH   LINE      CODE     ---       #81
      01001AD2H   LINE      CODE     ---       #82
      01001AD2H   LINE      CODE     ---       #83
      01001ADBH   LINE      CODE     ---       #84
      01001ADDH   LINE      CODE     ---       #87
      01001AE3H   LINE      CODE     ---       #88
      01001AE3H   LINE      CODE     ---       #89
      01001AECH   LINE      CODE     ---       #90
      01001AEEH   LINE      CODE     ---       #93
      01001AEEH   LINE      CODE     ---       #94
      01001AF1H   LINE      CODE     ---       #95
      01001AF1H   LINE      CODE     ---       #96
      01001AF1H   LINE      CODE     ---       #100
      01001AF6H   LINE      CODE     ---       #101
      01001AF6H   LINE      CODE     ---       #102
      01001AF9H   LINE      CODE     ---       #103
      01001AFBH   LINE      CODE     ---       #104
      01001AFBH   LINE      CODE     ---       #109
      01001B00H   LINE      CODE     ---       #110
      01001B00H   LINE      CODE     ---       #111
      01001B03H   LINE      CODE     ---       #112
      01001B05H   LINE      CODE     ---       #113
      01001B05H   LINE      CODE     ---       #114
      ---         BLOCKEND  ---      ---       LVL=0
      01001F90H   BLOCK     ---      ---       LVL=1
      00000025H   SYMBOL    DATA     BYTE      intStatus2
      01001F90H   LINE      CODE     ---       #133
      01001F92H   LINE      CODE     ---       #134
      01001F92H   LINE      CODE     ---       #136
      01001F97H   LINE      CODE     ---       #137
      01001F97H   LINE      CODE     ---       #139
      01001F9AH   LINE      CODE     ---       #141
      01001F9EH   LINE      CODE     ---       #143
      01001FA1H   LINE      CODE     ---       #144
      01001FA1H   LINE      CODE     ---       #146
      01001FA6H   LINE      CODE     ---       #147
      01001FA6H   LINE      CODE     ---       #148
      01001FADH   LINE      CODE     ---       #150
      01001FB2H   LINE      CODE     ---       #152
      01001FB7H   LINE      CODE     ---       #154
      01001FC2H   LINE      CODE     ---       #156
      01001FC7H   LINE      CODE     ---       #157
      01001FC8H   LINE      CODE     ---       #159
      01001FC8H   LINE      CODE     ---       #161
      01001FCBH   LINE      CODE     ---       #162
      01001FCFH   LINE      CODE     ---       #164
      01001FD2H   LINE      CODE     ---       #165
      01001FD2H   LINE      CODE     ---       #166
      ---         BLOCKEND  ---      ---       LVL=0
      01000F79H   BLOCK     ---      ---       LVL=1
      00000007H   SYMBOL    DATA     BYTE      msr
      00000025H   SYMBOL    DATA     BYTE      intStatus1
      00000026H   SYMBOL    DATA     BYTE      intStatus2
      01000F7DH   BLOCK     ---      ---       LVL=2
      00000027H   SYMBOL    DATA     BYTE      temp8
      ---         BLOCKEND  ---      ---       LVL=1
      01000F79H   LINE      CODE     ---       #186
      01000F7DH   LINE      CODE     ---       #187
      01000F7DH   LINE      CODE     ---       #195
      01000F9BH   LINE      CODE     ---       #196
      01000F9BH   LINE      CODE     ---       #198
LX51 LINKER/LOCATER V3.64                                                             04/10/2014  16:48:41  PAGE 24


      01000F9BH   LINE      CODE     ---       #199
      01000F9BH   LINE      CODE     ---       #200
      01000F9BH   LINE      CODE     ---       #202
      01000FA3H   LINE      CODE     ---       #203
      01000FA3H   LINE      CODE     ---       #204
      01000FA6H   LINE      CODE     ---       #205
      01000FA6H   LINE      CODE     ---       #206
      01000FA7H   LINE      CODE     ---       #209
      01000FA7H   LINE      CODE     ---       #211
      01000FAFH   LINE      CODE     ---       #212
      01000FAFH   LINE      CODE     ---       #215
      01000FB5H   LINE      CODE     ---       #216
      01000FB5H   LINE      CODE     ---       #217
      01000FC1H   LINE      CODE     ---       #218
      01000FC1H   LINE      CODE     ---       #220
      01000FC3H   LINE      CODE     ---       #221
      01000FCFH   LINE      CODE     ---       #223
      01000FD4H   LINE      CODE     ---       #225
      01000FDFH   LINE      CODE     ---       #226
      01000FDFH   LINE      CODE     ---       #227
      01000FE1H   LINE      CODE     ---       #228
      01000FE1H   LINE      CODE     ---       #229
      01000FE1H   LINE      CODE     ---       #232
      01000FE6H   LINE      CODE     ---       #233
      01000FE6H   LINE      CODE     ---       #235
      01000FEFH   LINE      CODE     ---       #236
      01000FEFH   LINE      CODE     ---       #243
      01000FF6H   LINE      CODE     ---       #245
      01000FFBH   LINE      CODE     ---       #247
      01001000H   LINE      CODE     ---       #249
      0100100BH   LINE      CODE     ---       #251
      0100100FH   LINE      CODE     ---       #252
      01001014H   LINE      CODE     ---       #253
      01001015H   LINE      CODE     ---       #254
      01001015H   LINE      CODE     ---       #256
      01001015H   LINE      CODE     ---       #259
      01001018H   LINE      CODE     ---       #263
      0100101BH   LINE      CODE     ---       #264
      01001022H   LINE      CODE     ---       #266
      01001022H   LINE      CODE     ---       #267
      01001022H   LINE      CODE     ---       #268
      01001024H   LINE      CODE     ---       #273
      01001024H   LINE      CODE     ---       #275
      0100102AH   LINE      CODE     ---       #276
      0100102EH   LINE      CODE     ---       #278
      01001035H   LINE      CODE     ---       #281
      01001041H   LINE      CODE     ---       #282
      01001041H   LINE      CODE     ---       #284
      01001048H   LINE      CODE     ---       #286
      0100104DH   LINE      CODE     ---       #287
      0100104DH   LINE      CODE     ---       #289
      01001054H   LINE      CODE     ---       #291
      01001057H   LINE      CODE     ---       #294
      0100105DH   LINE      CODE     ---       #295
      0100105DH   LINE      CODE     ---       #296
      01001066H   LINE      CODE     ---       #297
      01001066H   LINE      CODE     ---       #300
      01001071H   LINE      CODE     ---       #303
      01001074H   LINE      CODE     ---       #305
      01001074H   LINE      CODE     ---       #306
      01001076H   LINE      CODE     ---       #307
      01001076H   LINE      CODE     ---       #320
      01001076H   LINE      CODE     ---       #321
      01001076H   LINE      CODE     ---       #323
      0100107BH   LINE      CODE     ---       #324
LX51 LINKER/LOCATER V3.64                                                             04/10/2014  16:48:41  PAGE 25


      0100107BH   LINE      CODE     ---       #326
      01001080H   LINE      CODE     ---       #329
      01001085H   LINE      CODE     ---       #330
      01001085H   LINE      CODE     ---       #331
      01001085H   LINE      CODE     ---       #333
      01001085H   LINE      CODE     ---       #335
      0100108CH   LINE      CODE     ---       #336
      0100108FH   LINE      CODE     ---       #337
      01001096H   LINE      CODE     ---       #338
      01001099H   LINE      CODE     ---       #339
      010010A0H   LINE      CODE     ---       #341
      010010A5H   LINE      CODE     ---       #342
      010010A5H   LINE      CODE     ---       #343
      010010A5H   LINE      CODE     ---       #348
      010010A5H   LINE      CODE     ---       #349
      010010AAH   LINE      CODE     ---       #351
      010010B1H   LINE      CODE     ---       #352
      010010B6H   LINE      CODE     ---       #354
      010010BBH   LINE      CODE     ---       #355
      010010C0H   LINE      CODE     ---       #356
      010010C3H   LINE      CODE     ---       #357
      010010C6H   LINE      CODE     ---       #358
      010010C8H   LINE      CODE     ---       #359
      010010CDH   LINE      CODE     ---       #361
      010010D4H   LINE      CODE     ---       #362
      010010D4H   LINE      CODE     ---       #365
      010010D4H   LINE      CODE     ---       #366
      010010D4H   LINE      CODE     ---       #368
      010010D4H   LINE      CODE     ---       #369
      ---         BLOCKEND  ---      ---       LVL=0
      01000076H   BLOCK     ---      ---       LVL=1
      00000007H   SYMBOL    DATA     BYTE      msr
      00000025H   SYMBOL    DATA     BYTE      intStatus1
      00000026H   SYMBOL    DATA     BYTE      intStatus2
      0100007AH   BLOCK     ---      ---       LVL=2
      00000027H   SYMBOL    DATA     BYTE      temp8
      ---         BLOCKEND  ---      ---       LVL=1
      01000076H   LINE      CODE     ---       #392
      0100007AH   LINE      CODE     ---       #393
      0100007AH   LINE      CODE     ---       #399
      01000097H   LINE      CODE     ---       #400
      01000097H   LINE      CODE     ---       #402
      01000097H   LINE      CODE     ---       #404
      0100009FH   LINE      CODE     ---       #405
      0100009FH   LINE      CODE     ---       #407
      010000A4H   LINE      CODE     ---       #409
      010000AFH   LINE      CODE     ---       #411
      010000B3H   LINE      CODE     ---       #412
      010000B8H   LINE      CODE     ---       #413
      010000B8H   LINE      CODE     ---       #414
      010000B9H   LINE      CODE     ---       #448
      010000B9H   LINE      CODE     ---       #450
      010000C1H   LINE      CODE     ---       #451
      010000C1H   LINE      CODE     ---       #452
      010000C4H   LINE      CODE     ---       #454
      010000C9H   LINE      CODE     ---       #457
      010000D0H   LINE      CODE     ---       #477
      010000D3H   LINE      CODE     ---       #480
      010000D6H   LINE      CODE     ---       #483
      010000DCH   LINE      CODE     ---       #484
      010000E3H   LINE      CODE     ---       #486
      010000E7H   LINE      CODE     ---       #494
      010000EEH   LINE      CODE     ---       #496
      010000F9H   LINE      CODE     ---       #497
      010000FEH   LINE      CODE     ---       #499
LX51 LINKER/LOCATER V3.64                                                             04/10/2014  16:48:41  PAGE 26


      01000102H   LINE      CODE     ---       #500
      01000102H   LINE      CODE     ---       #501
      01000103H   LINE      CODE     ---       #503
      01000103H   LINE      CODE     ---       #505
      0100010BH   LINE      CODE     ---       #506
      0100010BH   LINE      CODE     ---       #508
      0100010EH   LINE      CODE     ---       #510
      01000113H   LINE      CODE     ---       #513
      01000119H   LINE      CODE     ---       #514
      01000119H   LINE      CODE     ---       #515
      01000122H   LINE      CODE     ---       #516
      01000122H   LINE      CODE     ---       #519
      0100012AH   LINE      CODE     ---       #520
      0100012AH   LINE      CODE     ---       #521
      01000131H   LINE      CODE     ---       #522
      0100013AH   LINE      CODE     ---       #523
      01000143H   LINE      CODE     ---       #524
      01000145H   LINE      CODE     ---       #525
      01000147H   LINE      CODE     ---       #527
      01000147H   LINE      CODE     ---       #528
      0100014EH   LINE      CODE     ---       #529
      01000157H   LINE      CODE     ---       #530
      01000160H   LINE      CODE     ---       #531
      01000160H   LINE      CODE     ---       #546
      0100016CH   LINE      CODE     ---       #547
      0100016CH   LINE      CODE     ---       #549
      01000173H   LINE      CODE     ---       #550
      01000176H   LINE      CODE     ---       #551
      0100017DH   LINE      CODE     ---       #552
      01000180H   LINE      CODE     ---       #553
      01000187H   LINE      CODE     ---       #556
      0100018CH   LINE      CODE     ---       #557
      01000192H   LINE      CODE     ---       #558
      01000192H   LINE      CODE     ---       #560
      01000195H   LINE      CODE     ---       #562
      010001A0H   LINE      CODE     ---       #563
      010001A3H   LINE      CODE     ---       #564
      010001A3H   LINE      CODE     ---       #578
      010001A3H   LINE      CODE     ---       #580
      010001A3H   LINE      CODE     ---       #581
      010001A3H   LINE      CODE     ---       #582
      010001A6H   LINE      CODE     ---       #583
      010001A6H   LINE      CODE     ---       #586
      010001B1H   LINE      CODE     ---       #589
      010001BAH   LINE      CODE     ---       #590
      010001BAH   LINE      CODE     ---       #605
      010001CCH   LINE      CODE     ---       #606
      010001CCH   LINE      CODE     ---       #642
      010001D3H   LINE      CODE     ---       #644
      010001DAH   LINE      CODE     ---       #654
      010001E4H   LINE      CODE     ---       #656
      010001EAH   LINE      CODE     ---       #657
      010001EAH   LINE      CODE     ---       #659
      010001F7H   LINE      CODE     ---       #661
      01000200H   LINE      CODE     ---       #663
      01000209H   LINE      CODE     ---       #665
      0100020FH   LINE      CODE     ---       #666
      01000211H   LINE      CODE     ---       #668
      01000211H   LINE      CODE     ---       #670
      0100021EH   LINE      CODE     ---       #672
      01000227H   LINE      CODE     ---       #674
      01000230H   LINE      CODE     ---       #675
      01000230H   LINE      CODE     ---       #678
      01000237H   LINE      CODE     ---       #679
      0100023AH   LINE      CODE     ---       #680
LX51 LINKER/LOCATER V3.64                                                             04/10/2014  16:48:41  PAGE 27


      01000241H   LINE      CODE     ---       #681
      01000244H   LINE      CODE     ---       #682
      0100024BH   LINE      CODE     ---       #685
      01000251H   LINE      CODE     ---       #686
      01000251H   LINE      CODE     ---       #688
      01000254H   LINE      CODE     ---       #689
      0100025BH   LINE      CODE     ---       #692
      01000265H   LINE      CODE     ---       #693
      01000276H   LINE      CODE     ---       #696
      01000279H   LINE      CODE     ---       #699
      01000286H   LINE      CODE     ---       #700
      0100029CH   LINE      CODE     ---       #701
      0100029CH   LINE      CODE     ---       #703
      0100029CH   LINE      CODE     ---       #707
      010002A5H   LINE      CODE     ---       #710
      010002ADH   LINE      CODE     ---       #711
      010002ADH   LINE      CODE     ---       #713
      010002B0H   LINE      CODE     ---       #714
      010002C4H   LINE      CODE     ---       #717
      010002C7H   LINE      CODE     ---       #720
      010002CAH   LINE      CODE     ---       #721
      010002E5H   LINE      CODE     ---       #722
      010002F0H   LINE      CODE     ---       #723
      010002FBH   LINE      CODE     ---       #725
      010002FBH   LINE      CODE     ---       #727
      010002FBH   LINE      CODE     ---       #729
      01000306H   LINE      CODE     ---       #730
      01000317H   LINE      CODE     ---       #733
      0100031AH   LINE      CODE     ---       #736
      01000325H   LINE      CODE     ---       #737
      0100033BH   LINE      CODE     ---       #738
      0100033BH   LINE      CODE     ---       #740
      0100033BH   LINE      CODE     ---       #743
      01000342H   LINE      CODE     ---       #746
      0100034DH   LINE      CODE     ---       #747
      01000352H   LINE      CODE     ---       #749
      01000357H   LINE      CODE     ---       #751
      0100035BH   LINE      CODE     ---       #752
      0100035CH   LINE      CODE     ---       #753
      0100035CH   LINE      CODE     ---       #756
      0100035CH   LINE      CODE     ---       #758
      01000360H   LINE      CODE     ---       #760
      01000364H   LINE      CODE     ---       #762
      01000369H   LINE      CODE     ---       #764
      01000369H   LINE      CODE     ---       #765
      0100036CH   LINE      CODE     ---       #766
      0100036CH   LINE      CODE     ---       #769
      0100036CH   LINE      CODE     ---       #884
      01000371H   LINE      CODE     ---       #887
      01000375H   LINE      CODE     ---       #889
      01000378H   LINE      CODE     ---       #891
      01000378H   LINE      CODE     ---       #892
      0100037AH   LINE      CODE     ---       #893
      0100037AH   LINE      CODE     ---       #895
      01000382H   LINE      CODE     ---       #896
      01000382H   LINE      CODE     ---       #898
      01000387H   LINE      CODE     ---       #900
      0100038BH   LINE      CODE     ---       #901
      0100038EH   LINE      CODE     ---       #904
      01000395H   LINE      CODE     ---       #905
      01000398H   LINE      CODE     ---       #906
      0100039FH   LINE      CODE     ---       #907
      010003A2H   LINE      CODE     ---       #908
      010003A9H   LINE      CODE     ---       #911
      010003AEH   LINE      CODE     ---       #913
LX51 LINKER/LOCATER V3.64                                                             04/10/2014  16:48:41  PAGE 28


      010003B4H   LINE      CODE     ---       #914
      010003B4H   LINE      CODE     ---       #916
      010003B7H   LINE      CODE     ---       #918
      010003C2H   LINE      CODE     ---       #919
      010003C5H   LINE      CODE     ---       #920
      010003C5H   LINE      CODE     ---       #934
      010003CAH   LINE      CODE     ---       #936
      010003CEH   LINE      CODE     ---       #937
      010003D0H   LINE      CODE     ---       #938
      010003D0H   LINE      CODE     ---       #939
      010003D1H   LINE      CODE     ---       #943
      010003D1H   LINE      CODE     ---       #945
      010003D6H   LINE      CODE     ---       #946
      010003D6H   LINE      CODE     ---       #948
      010003DDH   LINE      CODE     ---       #950
      010003E0H   LINE      CODE     ---       #952
      010003E4H   LINE      CODE     ---       #954
      010003E8H   LINE      CODE     ---       #956
      010003EDH   LINE      CODE     ---       #975
      010003F4H   LINE      CODE     ---       #984
      010003F9H   LINE      CODE     ---       #985
      010003F9H   LINE      CODE     ---       #986
      010003F9H   LINE      CODE     ---       #988
      010003FEH   LINE      CODE     ---       #989
      010003FEH   LINE      CODE     ---       #990
      01000402H   LINE      CODE     ---       #992
      01000405H   LINE      CODE     ---       #993
      01000405H   LINE      CODE     ---       #994
      01000405H   LINE      CODE     ---       #1064
      01000405H   LINE      CODE     ---       #1065
      0100040AH   LINE      CODE     ---       #1067
      01000411H   LINE      CODE     ---       #1068
      01000416H   LINE      CODE     ---       #1070
      0100041BH   LINE      CODE     ---       #1071
      01000420H   LINE      CODE     ---       #1072
      01000423H   LINE      CODE     ---       #1073
      01000426H   LINE      CODE     ---       #1074
      01000428H   LINE      CODE     ---       #1075
      0100042DH   LINE      CODE     ---       #1077
      01000434H   LINE      CODE     ---       #1078
      01000434H   LINE      CODE     ---       #1080
      01000434H   LINE      CODE     ---       #1081
      01000434H   LINE      CODE     ---       #1082
      01000434H   LINE      CODE     ---       #1083
      ---         BLOCKEND  ---      ---       LVL=0
      010023FEH   BLOCK     ---      ---       LVL=1
      010023FEH   LINE      CODE     ---       #1096
      010023FEH   LINE      CODE     ---       #1097
      010023FEH   LINE      CODE     ---       #1099
      01002401H   LINE      CODE     ---       #1101
      01002408H   LINE      CODE     ---       #1103
      ---         BLOCKEND  ---      ---       LVL=0
      01002089H   BLOCK     ---      ---       LVL=1
      01002089H   BLOCK     ---      ---       LVL=2
      00000007H   SYMBOL    DATA     BYTE      mask
      0000002BH   SYMBOL    DATA     BYTE      n
      ---         BLOCKEND  ---      ---       LVL=1
      01002089H   LINE      CODE     ---       #1122
      01002089H   LINE      CODE     ---       #1123
      01002089H   LINE      CODE     ---       #1127
      0100208CH   LINE      CODE     ---       #1130
      0100208EH   LINE      CODE     ---       #1131
      0100209BH   LINE      CODE     ---       #1134
      0100209BH   LINE      CODE     ---       #1135
      0100209DH   LINE      CODE     ---       #1136
LX51 LINKER/LOCATER V3.64                                                             04/10/2014  16:48:41  PAGE 29


      010020A0H   LINE      CODE     ---       #1137
      010020A4H   LINE      CODE     ---       #1138
      010020A9H   LINE      CODE     ---       #1141
      010020B0H   LINE      CODE     ---       #1143
      010020BCH   LINE      CODE     ---       #1144
      010020BFH   LINE      CODE     ---       #1145
      ---         BLOCKEND  ---      ---       LVL=0
      01001C2AH   BLOCK     ---      ---       LVL=1
      00000028H   SYMBOL    DATA     BYTE      tx
      01001C2CH   BLOCK     ---      ---       LVL=2
      00000029H   SYMBOL    DATA     BYTE      next
      0000002AH   SYMBOL    DATA     BYTE      temp8
      ---         BLOCKEND  ---      ---       LVL=1
      01001C2AH   LINE      CODE     ---       #1164
      01001C2CH   LINE      CODE     ---       #1165
      01001C2CH   LINE      CODE     ---       #1173
      01001C2FH   LINE      CODE     ---       #1182
      01001C35H   LINE      CODE     ---       #1183
      01001C35H   LINE      CODE     ---       #1184
      01001C39H   LINE      CODE     ---       #1185
      01001C3BH   LINE      CODE     ---       #1187
      01001C3BH   LINE      CODE     ---       #1188
      01001C41H   LINE      CODE     ---       #1189
      01001C41H   LINE      CODE     ---       #1191
      01001C45H   LINE      CODE     ---       #1192
      01001C45H   LINE      CODE     ---       #1194
      01001C49H   LINE      CODE     ---       #1195
      01001C4DH   LINE      CODE     ---       #1197
      01001C50H   LINE      CODE     ---       #1198
      01001C50H   LINE      CODE     ---       #1200
      01001C56H   LINE      CODE     ---       #1201
      01001C56H   LINE      CODE     ---       #1204
      01001C5DH   LINE      CODE     ---       #1205
      01001C60H   LINE      CODE     ---       #1206
      01001C67H   LINE      CODE     ---       #1207
      01001C6AH   LINE      CODE     ---       #1208
      01001C71H   LINE      CODE     ---       #1212
      01001C76H   LINE      CODE     ---       #1214
      01001C7CH   LINE      CODE     ---       #1215
      01001C7CH   LINE      CODE     ---       #1217
      01001C7FH   LINE      CODE     ---       #1219
      01001C8AH   LINE      CODE     ---       #1220
      01001C8DH   LINE      CODE     ---       #1221
      01001C8DH   LINE      CODE     ---       #1235
      01001C92H   LINE      CODE     ---       #1237
      01001C96H   LINE      CODE     ---       #1238
      01001C98H   LINE      CODE     ---       #1239
      01001C99H   LINE      CODE     ---       #1242
      01001C99H   LINE      CODE     ---       #1245
      01001C9EH   LINE      CODE     ---       #1267
      01001CA2H   LINE      CODE     ---       #1269
      01001CA5H   LINE      CODE     ---       #1270
      01001CA5H   LINE      CODE     ---       #1271
      ---         BLOCKEND  ---      ---       LVL=0
      0100229CH   BLOCK     ---      ---       LVL=1
      00000007H   SYMBOL    DATA     BYTE      m
      0100229CH   LINE      CODE     ---       #1293
      0100229CH   LINE      CODE     ---       #1294
      0100229CH   LINE      CODE     ---       #1295
      0100229FH   LINE      CODE     ---       #1297
      010022A6H   LINE      CODE     ---       #1298
      010022A6H   LINE      CODE     ---       #1299
      010022B1H   LINE      CODE     ---       #1300
      010022B7H   LINE      CODE     ---       #1301
      010022B7H   LINE      CODE     ---       #1302
LX51 LINKER/LOCATER V3.64                                                             04/10/2014  16:48:41  PAGE 30


      ---         BLOCKEND  ---      ---       LVL=0
      01002359H   BLOCK     ---      ---       LVL=1
      00000005H   SYMBOL    DATA     BYTE      value
      01002359H   LINE      CODE     ---       #1398
      0100235BH   LINE      CODE     ---       #1399
      0100235BH   LINE      CODE     ---       #1401
      01002361H   LINE      CODE     ---       #1402
      01002361H   LINE      CODE     ---       #1403
      01002364H   LINE      CODE     ---       #1404
      01002364H   LINE      CODE     ---       #1406
      0100236AH   LINE      CODE     ---       #1407
      0100236DH   LINE      CODE     ---       #1409
      ---         BLOCKEND  ---      ---       LVL=0
      010021ECH   BLOCK     ---      ---       LVL=1
      00000005H   SYMBOL    DATA     BYTE      value
      010021ECH   LINE      CODE     ---       #1424
      010021EEH   LINE      CODE     ---       #1425
      010021EEH   LINE      CODE     ---       #1427
      010021F4H   LINE      CODE     ---       #1428
      010021F4H   LINE      CODE     ---       #1429
      010021F7H   LINE      CODE     ---       #1430
      010021F9H   LINE      CODE     ---       #1431
      010021F9H   LINE      CODE     ---       #1432
      010021FFH   LINE      CODE     ---       #1433
      01002202H   LINE      CODE     ---       #1435
      01002208H   LINE      CODE     ---       #1436
      0100220BH   LINE      CODE     ---       #1438
      ---         BLOCKEND  ---      ---       LVL=0
      01001EFFH   BLOCK     ---      ---       LVL=1
      01001EFFH   BLOCK     ---      ---       LVL=2
      00000007H   SYMBOL    DATA     BYTE      rcid
      00000007H   SYMBOL    DATA     BYTE      packetLength
      ---         BLOCKEND  ---      ---       LVL=1
      01001EFFH   LINE      CODE     ---       #1466
      01001EFFH   LINE      CODE     ---       #1467
      01001EFFH   LINE      CODE     ---       #1471
      01001F05H   LINE      CODE     ---       #1472
      01001F08H   LINE      CODE     ---       #1474
      01001F0EH   LINE      CODE     ---       #1475
      01001F0EH   LINE      CODE     ---       #1477
      01001F14H   LINE      CODE     ---       #1478
      01001F14H   LINE      CODE     ---       #1480
      01001F19H   LINE      CODE     ---       #1484
      01001F1FH   LINE      CODE     ---       #1485
      01001F1FH   LINE      CODE     ---       #1488
      01001F21H   LINE      CODE     ---       #1490
      01001F23H   LINE      CODE     ---       #1491
      01001F23H   LINE      CODE     ---       #1492
      01001F23H   LINE      CODE     ---       #1493
      01001F23H   LINE      CODE     ---       #1495
      01001F29H   LINE      CODE     ---       #1496
      01001F29H   LINE      CODE     ---       #1499
      01001F2EH   LINE      CODE     ---       #1501
      01001F31H   LINE      CODE     ---       #1502
      01001F31H   LINE      CODE     ---       #1505
      01001F37H   LINE      CODE     ---       #1506
      01001F37H   LINE      CODE     ---       #1507
      01001F3CH   LINE      CODE     ---       #1509
      01001F45H   LINE      CODE     ---       #1510
      01001F45H   LINE      CODE     ---       #1511
      01001F48H   LINE      CODE     ---       #1513
      01001F48H   LINE      CODE     ---       #1514
      01001F48H   LINE      CODE     ---       #1516
      01001F4AH   LINE      CODE     ---       #1517
      ---         BLOCKEND  ---      ---       LVL=0
LX51 LINKER/LOCATER V3.64                                                             04/10/2014  16:48:41  PAGE 31


      01001B20H   BLOCK     ---      ---       LVL=1
      01001B20H   BLOCK     ---      ---       LVL=2
      00000028H   SYMBOL    DATA     BYTE      rsid
      00000029H   SYMBOL    DATA     BYTE      rdid
      ---         BLOCKEND  ---      ---       LVL=1
      01001B20H   LINE      CODE     ---       #1538
      01001B20H   LINE      CODE     ---       #1539
      01001B20H   LINE      CODE     ---       #1544
      01001B26H   LINE      CODE     ---       #1545
      01001B26H   LINE      CODE     ---       #1547
      01001B2CH   LINE      CODE     ---       #1548
      01001B30H   LINE      CODE     ---       #1550
      01001B37H   LINE      CODE     ---       #1557
      01001B44H   LINE      CODE     ---       #1558
      01001B44H   LINE      CODE     ---       #1559
      01001B47H   LINE      CODE     ---       #1560
      01001B47H   LINE      CODE     ---       #1561
      01001B47H   LINE      CODE     ---       #1564
      01001B4DH   LINE      CODE     ---       #1565
      01001B4DH   LINE      CODE     ---       #1568
      01001B53H   LINE      CODE     ---       #1569
      01001B57H   LINE      CODE     ---       #1571
      01001B5EH   LINE      CODE     ---       #1578
      01001B65H   LINE      CODE     ---       #1579
      01001B65H   LINE      CODE     ---       #1580
      01001B68H   LINE      CODE     ---       #1581
      01001B6AH   LINE      CODE     ---       #1582
      01001B6AH   LINE      CODE     ---       #1585
      01001B70H   LINE      CODE     ---       #1586
      01001B70H   LINE      CODE     ---       #1587
      01001B75H   LINE      CODE     ---       #1588
      01001B75H   LINE      CODE     ---       #1589
      01001B78H   LINE      CODE     ---       #1590
      01001B7BH   LINE      CODE     ---       #1591
      01001B7BH   LINE      CODE     ---       #1592
      01001B7BH   LINE      CODE     ---       #1595
      01001B81H   LINE      CODE     ---       #1596
      01001B81H   LINE      CODE     ---       #1598
      01001B85H   LINE      CODE     ---       #1599
      01001B85H   LINE      CODE     ---       #1600
      01001B8CH   LINE      CODE     ---       #1601
      01001B8CH   LINE      CODE     ---       #1602
      01001B8FH   LINE      CODE     ---       #1603
      01001B91H   LINE      CODE     ---       #1604
      01001B91H   LINE      CODE     ---       #1605
      01001B91H   LINE      CODE     ---       #1608
      01001B91H   LINE      CODE     ---       #1609
      01001B9EH   LINE      CODE     ---       #1610
      01001B9EH   LINE      CODE     ---       #1611
      01001BA1H   LINE      CODE     ---       #1612
      01001BA1H   LINE      CODE     ---       #1613
      01001BA1H   LINE      CODE     ---       #1614
      01001BA1H   LINE      CODE     ---       #1616
      01001BA4H   LINE      CODE     ---       #1617
      01001BA4H   LINE      CODE     ---       #1619
      01001BA4H   LINE      CODE     ---       #1620
      01001BA6H   LINE      CODE     ---       #1621
      01001BA6H   LINE      CODE     ---       #1622
      ---         BLOCKEND  ---      ---       LVL=0

      ---         MODULE    ---      ---       EZMACPRO_TIMERINT
      00000011H   PUBLIC    DATA     BYTE      CHANNELOCCUPIEDCOUNTER
      00000010H   PUBLIC    DATA     BYTE      CHANNELOCCUPIEDINSTARTPERIOD
      01002210H   PUBLIC    CODE     ---       _TIMERINTSETFUNCTION1
      01002372H   PUBLIC    CODE     ---       _TIMERINTSETENABLE2
LX51 LINKER/LOCATER V3.64                                                             04/10/2014  16:48:41  PAGE 32


      010022B8H   PUBLIC    CODE     ---       _TIMERINTINCREMENTERROR
      01001D22H   PUBLIC    CODE     ---       _TIMERINTGOTONEXTSTATEUSINGSECR
      01001FD3H   PUBLIC    CODE     ---       TIMERINTNEXTRX_CHANNEL
      0100240DH   PUBLIC    CODE     ---       TIMERINTDISABLEINTERRUPTS
      0100238BH   PUBLIC    CODE     ---       TIMERINTRANDOM
      0100193AH   PUBLIC    CODE     ---       _TIMERINTRX_STATEMACHINE
      01000C76H   PUBLIC    CODE     ---       _TIMERINTTX_STATEMACHINE
      0100242BH   PUBLIC    CODE     ---       TIMERINTWAKEUP
      01001CA6H   PUBLIC    CODE     ---       TIMERINTT3_ISR
      00000000H   SYMBOL    CODE     WORD      _ICE_DUMMY_
      01001CA6H   BLOCK     ---      ---       LVL=1
      01001CC3H   BLOCK     ---      ---       LVL=2
      0000002FH   SYMBOL    DATA     BYTE      state
      ---         BLOCKEND  ---      ---       LVL=1
      01001CA6H   LINE      CODE     ---       #63
      01001CC3H   LINE      CODE     ---       #67
      01001CC9H   LINE      CODE     ---       #68
      01001CC9H   LINE      CODE     ---       #69
      01001CCCH   LINE      CODE     ---       #70
      01001CCFH   LINE      CODE     ---       #71
      01001CD2H   LINE      CODE     ---       #73
      01001CD9H   LINE      CODE     ---       #75
      01001CDDH   LINE      CODE     ---       #76
      01001CDDH   LINE      CODE     ---       #77
      01001CE0H   LINE      CODE     ---       #78
      01001CE2H   LINE      CODE     ---       #80
      01001CE8H   LINE      CODE     ---       #81
      01001CE8H   LINE      CODE     ---       #82
      01001CEDH   LINE      CODE     ---       #83
      01001CEFH   LINE      CODE     ---       #86
      01001CF5H   LINE      CODE     ---       #87
      01001CF5H   LINE      CODE     ---       #88
      01001CFAH   LINE      CODE     ---       #89
      01001CFCH   LINE      CODE     ---       #92
      01001CFCH   LINE      CODE     ---       #93
      01001CFCH   LINE      CODE     ---       #94
      01001CFCH   LINE      CODE     ---       #96
      01001CFCH   LINE      CODE     ---       #97
      01001CFFH   LINE      CODE     ---       #98
      01001D07H   LINE      CODE     ---       #99
      01001D07H   LINE      CODE     ---       #100
      ---         BLOCKEND  ---      ---       LVL=0
      0100242BH   BLOCK     ---      ---       LVL=1
      0100242BH   LINE      CODE     ---       #116
      0100242BH   LINE      CODE     ---       #117
      0100242BH   LINE      CODE     ---       #119
      01002430H   LINE      CODE     ---       #121
      01002434H   LINE      CODE     ---       #123
      ---         BLOCKEND  ---      ---       LVL=0
      01000C76H   BLOCK     ---      ---       LVL=1
      00000007H   SYMBOL    DATA     BYTE      state
      01000C76H   BLOCK     ---      ---       LVL=2
      00000030H   SYMBOL    DATA     DWORD     timeout
      ---         BLOCKEND  ---      ---       LVL=1
      01000C76H   LINE      CODE     ---       #144
      01000C76H   LINE      CODE     ---       #145
      01000C76H   LINE      CODE     ---       #158
      01000C9AH   LINE      CODE     ---       #159
      01000C9AH   LINE      CODE     ---       #161
      01000C9AH   LINE      CODE     ---       #162
      01000C9EH   LINE      CODE     ---       #163
      01000C9EH   LINE      CODE     ---       #164
      01000CA0H   LINE      CODE     ---       #166
      01000CA4H   LINE      CODE     ---       #168
      01000CA4H   LINE      CODE     ---       #170
LX51 LINKER/LOCATER V3.64                                                             04/10/2014  16:48:41  PAGE 33


      01000CA4H   LINE      CODE     ---       #172
      01000CA4H   LINE      CODE     ---       #174
      01000CA4H   LINE      CODE     ---       #175
      01000CA7H   LINE      CODE     ---       #177
      01000CA7H   LINE      CODE     ---       #178
      01000CAAH   LINE      CODE     ---       #179
      01000CADH   LINE      CODE     ---       #180
      01000CAFH   LINE      CODE     ---       #182
      01000CB3H   LINE      CODE     ---       #184
      01000CB3H   LINE      CODE     ---       #186
      01000CB3H   LINE      CODE     ---       #188
      01000CB3H   LINE      CODE     ---       #189
      01000CB3H   LINE      CODE     ---       #190
      01000CB3H   LINE      CODE     ---       #191
      01000CB6H   LINE      CODE     ---       #194
      01000CB6H   LINE      CODE     ---       #195
      01000CBAH   LINE      CODE     ---       #196
      01000CBAH   LINE      CODE     ---       #198
      01000CBEH   LINE      CODE     ---       #199
      01000CBEH   LINE      CODE     ---       #201
      01000CBEH   LINE      CODE     ---       #203
      01000CBEH   LINE      CODE     ---       #205
      01000CBEH   LINE      CODE     ---       #207
      01000CBEH   LINE      CODE     ---       #209
      01000CBEH   LINE      CODE     ---       #211
      01000CBEH   LINE      CODE     ---       #212
      01000CBEH   LINE      CODE     ---       #213
      01000CC1H   LINE      CODE     ---       #215
      01000CC1H   LINE      CODE     ---       #216
      01000CC4H   LINE      CODE     ---       #218
      01000CE8H   LINE      CODE     ---       #220
      01000CF2H   LINE      CODE     ---       #222
      01000CF6H   LINE      CODE     ---       #224
      01000CF6H   LINE      CODE     ---       #226
      01000CF6H   LINE      CODE     ---       #227
      01000CF6H   LINE      CODE     ---       #228
      01000CF6H   LINE      CODE     ---       #229
      01000CF8H   LINE      CODE     ---       #231
      01000CF8H   LINE      CODE     ---       #232
      01000CFCH   LINE      CODE     ---       #233
      01000CFCH   LINE      CODE     ---       #235
      01000D20H   LINE      CODE     ---       #237
      01000D2AH   LINE      CODE     ---       #239
      01000D2EH   LINE      CODE     ---       #240
      01000D2EH   LINE      CODE     ---       #241
      01000D30H   LINE      CODE     ---       #243
      01000D30H   LINE      CODE     ---       #244
      01000D37H   LINE      CODE     ---       #245
      01000D37H   LINE      CODE     ---       #246
      01000D3AH   LINE      CODE     ---       #247
      01000D3CH   LINE      CODE     ---       #249
      01000D45H   LINE      CODE     ---       #251
      01000D49H   LINE      CODE     ---       #253
      01000D4EH   LINE      CODE     ---       #255
      01000D53H   LINE      CODE     ---       #256
      01000D53H   LINE      CODE     ---       #257
      01000D55H   LINE      CODE     ---       #259
      01000D55H   LINE      CODE     ---       #260
      01000D58H   LINE      CODE     ---       #261
      01000D5AH   LINE      CODE     ---       #262
      01000D63H   LINE      CODE     ---       #263
      01000D63H   LINE      CODE     ---       #265
      01000D63H   LINE      CODE     ---       #267
      01000D63H   LINE      CODE     ---       #269
      01000D63H   LINE      CODE     ---       #270
LX51 LINKER/LOCATER V3.64                                                             04/10/2014  16:48:41  PAGE 34


      01000D63H   LINE      CODE     ---       #272
      01000D63H   LINE      CODE     ---       #273
      01000D65H   LINE      CODE     ---       #294
      01000D65H   LINE      CODE     ---       #295
      01000D69H   LINE      CODE     ---       #296
      01000D69H   LINE      CODE     ---       #298
      01000D6EH   LINE      CODE     ---       #300
      01000D73H   LINE      CODE     ---       #302
      01000D7AH   LINE      CODE     ---       #304
      01000D7FH   LINE      CODE     ---       #306
      01000D8AH   LINE      CODE     ---       #308
      01000D8EH   LINE      CODE     ---       #309
      01000D91H   LINE      CODE     ---       #310
      01000D92H   LINE      CODE     ---       #312
      01000D92H   LINE      CODE     ---       #313
      01000D95H   LINE      CODE     ---       #314
      01000D97H   LINE      CODE     ---       #315
      01000DA0H   LINE      CODE     ---       #316
      01000DA0H   LINE      CODE     ---       #318
      01000DA3H   LINE      CODE     ---       #320
      01000DAEH   LINE      CODE     ---       #322
      01000DB2H   LINE      CODE     ---       #323
      01000DB5H   LINE      CODE     ---       #325
      01000DBAH   LINE      CODE     ---       #326
      01000DBAH   LINE      CODE     ---       #328
      01000DBAH   LINE      CODE     ---       #330
      01000DBDH   LINE      CODE     ---       #332
      01000DC1H   LINE      CODE     ---       #335
      01000DC6H   LINE      CODE     ---       #338
      01000DC9H   LINE      CODE     ---       #339
      01000DC9H   LINE      CODE     ---       #341
      01000DC9H   LINE      CODE     ---       #343
      01000DC9H   LINE      CODE     ---       #347
      01000DC9H   LINE      CODE     ---       #372
      01000DCDH   LINE      CODE     ---       #374
      01000DD0H   LINE      CODE     ---       #375
      01000DD0H   LINE      CODE     ---       #380
      01000DD0H   LINE      CODE     ---       #381
      01000DD5H   LINE      CODE     ---       #383
      01000DDCH   LINE      CODE     ---       #384
      01000DE1H   LINE      CODE     ---       #386
      01000DE6H   LINE      CODE     ---       #387
      01000DEBH   LINE      CODE     ---       #389
      01000DF0H   LINE      CODE     ---       #393
      01000DF3H   LINE      CODE     ---       #395
      01000DF8H   LINE      CODE     ---       #396
      01000DF8H   LINE      CODE     ---       #400
      01000DF8H   LINE      CODE     ---       #401
      01000DFDH   LINE      CODE     ---       #403
      01000E04H   LINE      CODE     ---       #404
      01000E09H   LINE      CODE     ---       #406
      01000E0EH   LINE      CODE     ---       #407
      01000E13H   LINE      CODE     ---       #408
      01000E16H   LINE      CODE     ---       #409
      01000E19H   LINE      CODE     ---       #410
      01000E1BH   LINE      CODE     ---       #416
      01000E1BH   LINE      CODE     ---       #418
      01000E1BH   LINE      CODE     ---       #419
      01000E1BH   LINE      CODE     ---       #421
      01000E1BH   LINE      CODE     ---       #422
      ---         BLOCKEND  ---      ---       LVL=0
      0100193AH   BLOCK     ---      ---       LVL=1
      00000007H   SYMBOL    DATA     BYTE      state
      0100193AH   BLOCK     ---      ---       LVL=2
      00000005H   SYMBOL    DATA     BYTE      temp8
LX51 LINKER/LOCATER V3.64                                                             04/10/2014  16:48:41  PAGE 35


      ---         BLOCKEND  ---      ---       LVL=1
      0100193AH   LINE      CODE     ---       #444
      0100193AH   LINE      CODE     ---       #445
      0100193AH   LINE      CODE     ---       #450
      0100194EH   LINE      CODE     ---       #451
      0100194EH   LINE      CODE     ---       #453
      0100194EH   LINE      CODE     ---       #455
      01001954H   LINE      CODE     ---       #456
      01001954H   LINE      CODE     ---       #457
      01001957H   LINE      CODE     ---       #458
      01001957H   LINE      CODE     ---       #460
      01001962H   LINE      CODE     ---       #461
      01001965H   LINE      CODE     ---       #462
      01001966H   LINE      CODE     ---       #498
      01001966H   LINE      CODE     ---       #500
      0100196CH   LINE      CODE     ---       #501
      0100196CH   LINE      CODE     ---       #502
      01001973H   LINE      CODE     ---       #503
      01001976H   LINE      CODE     ---       #504
      01001978H   LINE      CODE     ---       #505
      0100197AH   LINE      CODE     ---       #507
      0100197AH   LINE      CODE     ---       #508
      01001983H   LINE      CODE     ---       #509
      01001983H   LINE      CODE     ---       #515
      01001983H   LINE      CODE     ---       #518
      01001988H   LINE      CODE     ---       #520
      0100198FH   LINE      CODE     ---       #523
      01001994H   LINE      CODE     ---       #525
      0100199AH   LINE      CODE     ---       #526
      0100199AH   LINE      CODE     ---       #527
      0100199DH   LINE      CODE     ---       #528
      0100199DH   LINE      CODE     ---       #530
      010019A8H   LINE      CODE     ---       #531
      010019ABH   LINE      CODE     ---       #555
      010019B0H   LINE      CODE     ---       #557
      010019B4H   LINE      CODE     ---       #558
      010019B5H   LINE      CODE     ---       #562
      010019B5H   LINE      CODE     ---       #581
      010019BCH   LINE      CODE     ---       #590
      010019C0H   LINE      CODE     ---       #592
      010019C3H   LINE      CODE     ---       #593
      010019C3H   LINE      CODE     ---       #807
      010019C3H   LINE      CODE     ---       #808
      010019C8H   LINE      CODE     ---       #810
      010019CFH   LINE      CODE     ---       #811
      010019D4H   LINE      CODE     ---       #813
      010019D9H   LINE      CODE     ---       #814
      010019DEH   LINE      CODE     ---       #815
      010019E1H   LINE      CODE     ---       #816
      010019E4H   LINE      CODE     ---       #817
      010019E6H   LINE      CODE     ---       #823
      010019E6H   LINE      CODE     ---       #824
      010019E6H   LINE      CODE     ---       #825
      010019E6H   LINE      CODE     ---       #826
      010019E6H   LINE      CODE     ---       #827
      ---         BLOCKEND  ---      ---       LVL=0
      0100238BH   BLOCK     ---      ---       LVL=1
      0100238BH   BLOCK     ---      ---       LVL=2
      00000007H   SYMBOL    DATA     BYTE      temp8
      ---         BLOCKEND  ---      ---       LVL=1
      0100238BH   LINE      CODE     ---       #855
      0100238BH   LINE      CODE     ---       #856
      0100238BH   LINE      CODE     ---       #859
      01002393H   LINE      CODE     ---       #860
      01002397H   LINE      CODE     ---       #862
LX51 LINKER/LOCATER V3.64                                                             04/10/2014  16:48:41  PAGE 36


      0100239BH   LINE      CODE     ---       #863
      0100239DH   LINE      CODE     ---       #864
      010023A0H   LINE      CODE     ---       #866
      010023A0H   LINE      CODE     ---       #867
      ---         BLOCKEND  ---      ---       LVL=0
      0100240DH   BLOCK     ---      ---       LVL=1
      0100240DH   LINE      CODE     ---       #881
      0100240DH   LINE      CODE     ---       #882
      0100240DH   LINE      CODE     ---       #884
      01002410H   LINE      CODE     ---       #886
      01002417H   LINE      CODE     ---       #888
      ---         BLOCKEND  ---      ---       LVL=0
      01001FD3H   BLOCK     ---      ---       LVL=1
      01001FD3H   BLOCK     ---      ---       LVL=2
      00000007H   SYMBOL    DATA     BYTE      mask
      00000037H   SYMBOL    DATA     BYTE      n
      ---         BLOCKEND  ---      ---       LVL=1
      01001FD3H   LINE      CODE     ---       #909
      01001FD3H   LINE      CODE     ---       #910
      01001FD3H   LINE      CODE     ---       #914
      01001FD6H   LINE      CODE     ---       #917
      01001FD8H   LINE      CODE     ---       #918
      01001FE5H   LINE      CODE     ---       #921
      01001FE5H   LINE      CODE     ---       #922
      01001FE7H   LINE      CODE     ---       #923
      01001FEAH   LINE      CODE     ---       #924
      01001FEEH   LINE      CODE     ---       #925
      01001FF3H   LINE      CODE     ---       #928
      01001FFAH   LINE      CODE     ---       #931
      01001FFFH   LINE      CODE     ---       #932
      0100200BH   LINE      CODE     ---       #934
      01002010H   LINE      CODE     ---       #936
      01002013H   LINE      CODE     ---       #937
      ---         BLOCKEND  ---      ---       LVL=0
      01001D22H   BLOCK     ---      ---       LVL=1
      00000034H   SYMBOL    DATA     BYTE      tx
      01001D24H   BLOCK     ---      ---       LVL=2
      00000035H   SYMBOL    DATA     BYTE      next
      00000036H   SYMBOL    DATA     BYTE      temp8
      ---         BLOCKEND  ---      ---       LVL=1
      01001D22H   LINE      CODE     ---       #959
      01001D24H   LINE      CODE     ---       #960
      01001D24H   LINE      CODE     ---       #968
      01001D27H   LINE      CODE     ---       #977
      01001D2DH   LINE      CODE     ---       #978
      01001D2DH   LINE      CODE     ---       #979
      01001D31H   LINE      CODE     ---       #980
      01001D33H   LINE      CODE     ---       #982
      01001D33H   LINE      CODE     ---       #983
      01001D39H   LINE      CODE     ---       #984
      01001D39H   LINE      CODE     ---       #986
      01001D3DH   LINE      CODE     ---       #987
      01001D3DH   LINE      CODE     ---       #989
      01001D41H   LINE      CODE     ---       #990
      01001D45H   LINE      CODE     ---       #992
      01001D48H   LINE      CODE     ---       #993
      01001D48H   LINE      CODE     ---       #995
      01001D4EH   LINE      CODE     ---       #996
      01001D4EH   LINE      CODE     ---       #999
      01001D55H   LINE      CODE     ---       #1000
      01001D58H   LINE      CODE     ---       #1001
      01001D5FH   LINE      CODE     ---       #1002
      01001D62H   LINE      CODE     ---       #1003
      01001D69H   LINE      CODE     ---       #1007
      01001D6EH   LINE      CODE     ---       #1009
LX51 LINKER/LOCATER V3.64                                                             04/10/2014  16:48:41  PAGE 37


      01001D74H   LINE      CODE     ---       #1010
      01001D74H   LINE      CODE     ---       #1012
      01001D77H   LINE      CODE     ---       #1014
      01001D82H   LINE      CODE     ---       #1015
      01001D85H   LINE      CODE     ---       #1016
      01001D85H   LINE      CODE     ---       #1030
      01001D8AH   LINE      CODE     ---       #1032
      01001D8EH   LINE      CODE     ---       #1033
      01001D90H   LINE      CODE     ---       #1034
      01001D91H   LINE      CODE     ---       #1037
      01001D91H   LINE      CODE     ---       #1040
      01001D96H   LINE      CODE     ---       #1062
      01001D9AH   LINE      CODE     ---       #1064
      01001D9DH   LINE      CODE     ---       #1065
      01001D9DH   LINE      CODE     ---       #1066
      ---         BLOCKEND  ---      ---       LVL=0
      010022B8H   BLOCK     ---      ---       LVL=1
      00000007H   SYMBOL    DATA     BYTE      mask
      010022B8H   LINE      CODE     ---       #1089
      010022B8H   LINE      CODE     ---       #1090
      010022B8H   LINE      CODE     ---       #1092
      010022BBH   LINE      CODE     ---       #1095
      010022C2H   LINE      CODE     ---       #1096
      010022C2H   LINE      CODE     ---       #1097
      010022CDH   LINE      CODE     ---       #1098
      010022D3H   LINE      CODE     ---       #1099
      010022D3H   LINE      CODE     ---       #1100
      ---         BLOCKEND  ---      ---       LVL=0
      01002372H   BLOCK     ---      ---       LVL=1
      00000005H   SYMBOL    DATA     BYTE      value
      01002372H   LINE      CODE     ---       #1121
      01002374H   LINE      CODE     ---       #1122
      01002374H   LINE      CODE     ---       #1123
      0100237AH   LINE      CODE     ---       #1124
      0100237AH   LINE      CODE     ---       #1125
      0100237DH   LINE      CODE     ---       #1126
      0100237DH   LINE      CODE     ---       #1128
      01002383H   LINE      CODE     ---       #1129
      01002386H   LINE      CODE     ---       #1131
      ---         BLOCKEND  ---      ---       LVL=0
      01002210H   BLOCK     ---      ---       LVL=1
      00000005H   SYMBOL    DATA     BYTE      value
      01002210H   LINE      CODE     ---       #1149
      01002212H   LINE      CODE     ---       #1150
      01002212H   LINE      CODE     ---       #1151
      01002218H   LINE      CODE     ---       #1152
      01002218H   LINE      CODE     ---       #1153
      0100221BH   LINE      CODE     ---       #1154
      0100221DH   LINE      CODE     ---       #1155
      0100221DH   LINE      CODE     ---       #1156
      01002223H   LINE      CODE     ---       #1157
      01002226H   LINE      CODE     ---       #1159
      0100222CH   LINE      CODE     ---       #1160
      0100222FH   LINE      CODE     ---       #1162
      ---         BLOCKEND  ---      ---       LVL=0

      ---         MODULE    ---      ---       P2P_DEMO_TX_NODE
      0200006DH   PUBLIC    XDATA    BYTE      STATE_SOS_SW
      0200006CH   PUBLIC    XDATA    BYTE      STATE_CHANGE_SOS
      02000044H   PUBLIC    XDATA    ---       PRINTBUF
      02000004H   PUBLIC    XDATA    ---       ABRFPAYLOAD
      02000003H   PUBLIC    XDATA    BYTE      STATE_MAG_SW
      02000002H   PUBLIC    XDATA    BYTE      WPACKETCOUNTER
      02000001H   PUBLIC    XDATA    BYTE      DEMO_SR
      02000000H   PUBLIC    XDATA    BYTE      BPACKETLENGTH
LX51 LINKER/LOCATER V3.64                                                             04/10/2014  16:48:41  PAGE 38


      010020C0H   PUBLIC    CODE     ---       _BITSET_XOR
      010010D5H   PUBLIC    CODE     ---       VP2P_DEMO_SENDPACKETGOTOSLEEP
      0100187FH   PUBLIC    CODE     ---       VP2P_DEMO_TXINIT
      010016DEH   PUBLIC    CODE     ---       STATEMACHINE
      01002437H   PUBLIC    CODE     ---       STATEMACHINE_INIT
      00000000H   SYMBOL    CODE     WORD      _ICE_DUMMY_
      01002437H   BLOCK     ---      ---       LVL=1
      01002437H   LINE      CODE     ---       #54
      01002437H   LINE      CODE     ---       #55
      01002437H   LINE      CODE     ---       #57
      0100243AH   LINE      CODE     ---       #59
      01002440H   LINE      CODE     ---       #60
      ---         BLOCKEND  ---      ---       LVL=0
      010016DEH   BLOCK     ---      ---       LVL=1
      010016DEH   BLOCK     ---      ---       LVL=2
      0000003BH   SYMBOL    DATA     WORD      timeout
      ---         BLOCKEND  ---      ---       LVL=1
      010016DEH   LINE      CODE     ---       #66
      010016DEH   LINE      CODE     ---       #67
      010016DEH   LINE      CODE     ---       #69
      010016F4H   LINE      CODE     ---       #70
      010016F4H   LINE      CODE     ---       #71
      010016F4H   LINE      CODE     ---       #73
      010016F7H   LINE      CODE     ---       #75
      010016F9H   LINE      CODE     ---       #77
      010016FCH   LINE      CODE     ---       #80
      01001702H   LINE      CODE     ---       #81
      01001705H   LINE      CODE     ---       #82
      0100170FH   LINE      CODE     ---       #83
      01001715H   LINE      CODE     ---       #84
      01001717H   LINE      CODE     ---       #85
      01001717H   LINE      CODE     ---       #86
      0100171EH   LINE      CODE     ---       #87
      01001726H   LINE      CODE     ---       #88
      01001726H   LINE      CODE     ---       #89
      01001728H   LINE      CODE     ---       #92
      0100172AH   LINE      CODE     ---       #93
      0100172CH   LINE      CODE     ---       #95
      0100172FH   LINE      CODE     ---       #97
      01001734H   LINE      CODE     ---       #98
      01001735H   LINE      CODE     ---       #99
      01001739H   LINE      CODE     ---       #101
      0100173BH   LINE      CODE     ---       #104
      0100173DH   LINE      CODE     ---       #105
      0100173FH   LINE      CODE     ---       #108
      0100173FH   LINE      CODE     ---       #109
      01001741H   LINE      CODE     ---       #111
      01001741H   LINE      CODE     ---       #113
      01001744H   LINE      CODE     ---       #114
      01001744H   LINE      CODE     ---       #115
      01001746H   LINE      CODE     ---       #118
      01001749H   LINE      CODE     ---       #119
      0100174FH   LINE      CODE     ---       #120
      01001751H   LINE      CODE     ---       #121
      01001753H   LINE      CODE     ---       #122
      01001753H   LINE      CODE     ---       #123
      01001758H   LINE      CODE     ---       #124
      0100175AH   LINE      CODE     ---       #125
      0100175AH   LINE      CODE     ---       #127
      0100175DH   LINE      CODE     ---       #128
      01001763H   LINE      CODE     ---       #129
      01001763H   LINE      CODE     ---       #131
      01001772H   LINE      CODE     ---       #132
      01001776H   LINE      CODE     ---       #133
      01001779H   LINE      CODE     ---       #134
LX51 LINKER/LOCATER V3.64                                                             04/10/2014  16:48:41  PAGE 39


      0100177BH   LINE      CODE     ---       #135
      0100177DH   LINE      CODE     ---       #136
      0100178BH   LINE      CODE     ---       #137
      01001790H   LINE      CODE     ---       #138
      01001792H   LINE      CODE     ---       #139
      01001794H   LINE      CODE     ---       #140
      01001794H   LINE      CODE     ---       #143
      01001797H   LINE      CODE     ---       #144
      01001799H   LINE      CODE     ---       #147
      0100179FH   LINE      CODE     ---       #148
      0100179FH   LINE      CODE     ---       #149
      010017A0H   LINE      CODE     ---       #151
      010017A0H   LINE      CODE     ---       #153
      010017A3H   LINE      CODE     ---       #154
      010017A3H   LINE      CODE     ---       #155
      010017A5H   LINE      CODE     ---       #158
      010017ABH   LINE      CODE     ---       #159
      010017ABH   LINE      CODE     ---       #162
      010017AEH   LINE      CODE     ---       #163
      010017AEH   LINE      CODE     ---       #164
      010017B0H   LINE      CODE     ---       #166
      010017B6H   LINE      CODE     ---       #167
      010017B6H   LINE      CODE     ---       #168
      010017B6H   LINE      CODE     ---       #170
      010017B6H   LINE      CODE     ---       #171
      010017B6H   LINE      CODE     ---       #172
      010017B6H   LINE      CODE     ---       #173
      ---         BLOCKEND  ---      ---       LVL=0
      0100187FH   BLOCK     ---      ---       LVL=1
      0100187FH   BLOCK     ---      ---       LVL=2
      0000003DH   SYMBOL    DATA     WORD      timeout
      ---         BLOCKEND  ---      ---       LVL=1
      0100187FH   LINE      CODE     ---       #177
      0100187FH   LINE      CODE     ---       #178
      0100187FH   LINE      CODE     ---       #181
      01001886H   LINE      CODE     ---       #182
      0100188DH   LINE      CODE     ---       #183
      01001894H   LINE      CODE     ---       #190
      0100189AH   LINE      CODE     ---       #191
      0100189DH   LINE      CODE     ---       #192
      010018A7H   LINE      CODE     ---       #193
      010018ADH   LINE      CODE     ---       #194
      010018AFH   LINE      CODE     ---       #195
      010018AFH   LINE      CODE     ---       #196
      010018B6H   LINE      CODE     ---       #197
      010018BEH   LINE      CODE     ---       #198
      010018BEH   LINE      CODE     ---       #199
      010018C0H   LINE      CODE     ---       #202
      010018C2H   LINE      CODE     ---       #204
      010018C9H   LINE      CODE     ---       #206
      010018CEH   LINE      CODE     ---       #209
      010018DBH   LINE      CODE     ---       #210
      010018E2H   LINE      CODE     ---       #211
      010018E9H   LINE      CODE     ---       #212
      010018F0H   LINE      CODE     ---       #213
      010018F7H   LINE      CODE     ---       #214
      010018FEH   LINE      CODE     ---       #215
      01001905H   LINE      CODE     ---       #216
      0100190CH   LINE      CODE     ---       #217
      01001913H   LINE      CODE     ---       #218
      0100191AH   LINE      CODE     ---       #219
      01001921H   LINE      CODE     ---       #220
      01001928H   LINE      CODE     ---       #226
      01001931H   LINE      CODE     ---       #227
      ---         BLOCKEND  ---      ---       LVL=0
LX51 LINKER/LOCATER V3.64                                                             04/10/2014  16:48:41  PAGE 40


      010010D5H   BLOCK     ---      ---       LVL=1
      010010D5H   BLOCK     ---      ---       LVL=2
      0000003DH   SYMBOL    DATA     WORD      timeout
      0000003FH   SYMBOL    DATA     ---       PayloadStruct
      ---         BLOCKEND  ---      ---       LVL=1
      010010D5H   LINE      CODE     ---       #232
      010010D5H   LINE      CODE     ---       #233
      010010D5H   LINE      CODE     ---       #236
      010010DEH   LINE      CODE     ---       #239
      010010E4H   LINE      CODE     ---       #245
      010010EFH   LINE      CODE     ---       #246
      010010FDH   LINE      CODE     ---       #247
      01001109H   LINE      CODE     ---       #248
      01001111H   LINE      CODE     ---       #249
      01001118H   LINE      CODE     ---       #250
      01001120H   LINE      CODE     ---       #251
      01001128H   LINE      CODE     ---       #252
      01001130H   LINE      CODE     ---       #253
      01001138H   LINE      CODE     ---       #254
      0100113FH   LINE      CODE     ---       #255
      01001146H   LINE      CODE     ---       #256
      0100114DH   LINE      CODE     ---       #258
      0100115DH   LINE      CODE     ---       #259
      01001161H   LINE      CODE     ---       #261
      01001165H   LINE      CODE     ---       #263
      01001175H   LINE      CODE     ---       #264
      01001179H   LINE      CODE     ---       #266
      0100117DH   LINE      CODE     ---       #268
      01001197H   LINE      CODE     ---       #272
      0100119EH   LINE      CODE     ---       #274
      010011AAH   LINE      CODE     ---       #277
      010011ADH   LINE      CODE     ---       #280
      010011B3H   LINE      CODE     ---       #281
      010011B6H   LINE      CODE     ---       #282
      010011C0H   LINE      CODE     ---       #283
      010011C6H   LINE      CODE     ---       #284
      010011C8H   LINE      CODE     ---       #285
      010011C8H   LINE      CODE     ---       #286
      010011CFH   LINE      CODE     ---       #287
      010011D7H   LINE      CODE     ---       #288
      010011D7H   LINE      CODE     ---       #289
      010011D9H   LINE      CODE     ---       #292
      010011DBH   LINE      CODE     ---       #293
      010011DDH   LINE      CODE     ---       #299
      010011E6H   LINE      CODE     ---       #302
      010011E9H   LINE      CODE     ---       #305
      010011EFH   LINE      CODE     ---       #306
      010011F2H   LINE      CODE     ---       #307
      010011FCH   LINE      CODE     ---       #308
      01001202H   LINE      CODE     ---       #309
      01001204H   LINE      CODE     ---       #310
      01001204H   LINE      CODE     ---       #311
      0100120BH   LINE      CODE     ---       #312
      01001213H   LINE      CODE     ---       #313
      01001213H   LINE      CODE     ---       #314
      01001215H   LINE      CODE     ---       #317
      01001217H   LINE      CODE     ---       #323
      01001226H   LINE      CODE     ---       #330
      ---         BLOCKEND  ---      ---       LVL=0
      010020C0H   BLOCK     ---      ---       LVL=1
      00000042H   SYMBOL    DATA     INT       len
      00000044H   SYMBOL    DATA     ---       buffer
      010020CAH   BLOCK     ---      ---       LVL=2
      00000047H   SYMBOL    DATA     BYTE      XOR
      00000006H   SYMBOL    DATA     WORD      i
LX51 LINKER/LOCATER V3.64                                                             04/10/2014  16:48:41  PAGE 41


      ---         BLOCKEND  ---      ---       LVL=1
      010020C0H   LINE      CODE     ---       #334
      010020CAH   LINE      CODE     ---       #336
      010020CDH   LINE      CODE     ---       #338
      010020D8H   LINE      CODE     ---       #339
      010020E7H   LINE      CODE     ---       #340
      010020EEH   LINE      CODE     ---       #341
      010020F0H   LINE      CODE     ---       #342
      ---         BLOCKEND  ---      ---       LVL=0

      ---         MODULE    ---      ---       MAIN
      01002441H   PUBLIC    CODE     ---       MAIN
      00000000H   SYMBOL    CODE     WORD      _ICE_DUMMY_
      01002441H   BLOCK     ---      ---       LVL=1
      01002441H   LINE      CODE     ---       #39
      01002441H   LINE      CODE     ---       #40
      01002441H   LINE      CODE     ---       #42
      01002444H   LINE      CODE     ---       #45
      01002444H   LINE      CODE     ---       #46
      01002444H   LINE      CODE     ---       #48
      01002447H   LINE      CODE     ---       #49
      ---         BLOCKEND  ---      ---       LVL=0

      ---         MODULE    ---      ---       P2P_DEMO_TX_MENU
      020000BEH   PUBLIC    XDATA    ---       LCD_DATA
      00000000H   SYMBOL    CODE     WORD      _ICE_DUMMY_

      ---         MODULE    ---      ---       BSP
      0000000CH   PUBLIC    DATA     WORD      EZMACPROTIMERMSB
      0000000AH   PUBLIC    DATA     WORD      TIMER0MSB_SAVE
      00000008H   PUBLIC    DATA     WORD      TIMER0MSB
      01002014H   PUBLIC    CODE     ---       RFSETTINGSB1
      010023CCH   PUBLIC    CODE     ---       SYSTEMCLKINIT
      0100006CH   PUBLIC    CODE     ---       INTERRUPTINIT
      0100244EH   PUBLIC    CODE     ---       LEDINIT
      01001E11H   PUBLIC    CODE     ---       PORTINIT
      010023B7H   PUBLIC    CODE     ---       BOARDINIT
      01002234H   PUBLIC    CODE     ---       UART0INIT
      0100214DH   PUBLIC    CODE     ---       _TIMERINTTIMEOUT
      01002121H   PUBLIC    CODE     ---       _EXTINTTIMEOUT
      01001F4BH   PUBLIC    CODE     ---       _MACTIMEOUT
      010023A1H   PUBLIC    CODE     ---       TIMER3INIT
      01001E62H   PUBLIC    CODE     ---       _DELAY_MS
      01002325H   PUBLIC    CODE     ---       _TIMERINTSPIREADREG
      0100230AH   PUBLIC    CODE     ---       _TIMERINTSPIWRITEREG
      010020F1H   PUBLIC    CODE     ---       _EXTINTSPIREADFIFO
      010022EFH   PUBLIC    CODE     ---       _EXTINTSPIREADREG
      010022D4H   PUBLIC    CODE     ---       _EXTINTSPIWRITEREG
      01002050H   PUBLIC    CODE     ---       _MACSPIWRITEFIFO
      010021C6H   PUBLIC    CODE     ---       _MACSPIREADREG
      010021A0H   PUBLIC    CODE     ---       _MACSPIWRITEREG
      0100241CH   PUBLIC    CODE     ---       SPI1INIT
      00000000H   SYMBOL    CODE     WORD      _ICE_DUMMY_
      00000000H   BLOCK     ---      ---       LVL=1
      ---         BLOCKEND  ---      ---       LVL=0
      0100241CH   BLOCK     ---      ---       LVL=1
      0100241CH   LINE      CODE     ---       #21
      0100241CH   LINE      CODE     ---       #22
      0100241CH   LINE      CODE     ---       #23
      0100241FH   LINE      CODE     ---       #24
      01002422H   LINE      CODE     ---       #25
      01002425H   LINE      CODE     ---       #26
      01002428H   LINE      CODE     ---       #27
      0100242AH   LINE      CODE     ---       #28
      ---         BLOCKEND  ---      ---       LVL=0
LX51 LINKER/LOCATER V3.64                                                             04/10/2014  16:48:41  PAGE 42


      010021A0H   BLOCK     ---      ---       LVL=1
      00000007H   SYMBOL    DATA     BYTE      reg
      00000005H   SYMBOL    DATA     BYTE      value
      010021A0H   BLOCK     ---      ---       LVL=2
      00000006H   SYMBOL    DATA     BYTE      restoreInts
      ---         BLOCKEND  ---      ---       LVL=1
      010021A0H   LINE      CODE     ---       #64
      010021A0H   LINE      CODE     ---       #65
      010021A0H   LINE      CODE     ---       #69
      010021A5H   LINE      CODE     ---       #70
      010021A8H   LINE      CODE     ---       #73
      010021AAH   LINE      CODE     ---       #74
      010021ACH   LINE      CODE     ---       #75
      010021B1H   LINE      CODE     ---       #76
      010021B4H   LINE      CODE     ---       #77
      010021B6H   LINE      CODE     ---       #78
      010021B9H   LINE      CODE     ---       #79
      010021BEH   LINE      CODE     ---       #81
      010021C0H   LINE      CODE     ---       #82
      010021C2H   LINE      CODE     ---       #85
      010021C5H   LINE      CODE     ---       #86
      ---         BLOCKEND  ---      ---       LVL=0
      010021C6H   BLOCK     ---      ---       LVL=1
      00000007H   SYMBOL    DATA     BYTE      reg
      010021C6H   BLOCK     ---      ---       LVL=2
      00000007H   SYMBOL    DATA     BYTE      value
      00000006H   SYMBOL    DATA     BYTE      restoreInts
      ---         BLOCKEND  ---      ---       LVL=1
      010021C6H   LINE      CODE     ---       #96
      010021C6H   LINE      CODE     ---       #97
      010021C6H   LINE      CODE     ---       #102
      010021CBH   LINE      CODE     ---       #103
      010021CEH   LINE      CODE     ---       #106
      010021D0H   LINE      CODE     ---       #107
      010021D2H   LINE      CODE     ---       #108
      010021D4H   LINE      CODE     ---       #109
      010021D7H   LINE      CODE     ---       #110
      010021DAH   LINE      CODE     ---       #111
      010021DDH   LINE      CODE     ---       #112
      010021E2H   LINE      CODE     ---       #113
      010021E4H   LINE      CODE     ---       #114
      010021E6H   LINE      CODE     ---       #115
      010021E8H   LINE      CODE     ---       #118
      010021EBH   LINE      CODE     ---       #120
      010021EBH   LINE      CODE     ---       #121
      ---         BLOCKEND  ---      ---       LVL=0
      01002050H   BLOCK     ---      ---       LVL=1
      00000007H   SYMBOL    DATA     BYTE      n
      00000004H   SYMBOL    DATA     ---       buffer
      01002050H   BLOCK     ---      ---       LVL=2
      00000006H   SYMBOL    DATA     BYTE      restoreInts
      ---         BLOCKEND  ---      ---       LVL=1
      01002050H   LINE      CODE     ---       #132
      01002050H   LINE      CODE     ---       #133
      01002050H   LINE      CODE     ---       #137
      01002055H   LINE      CODE     ---       #138
      01002058H   LINE      CODE     ---       #140
      0100205AH   LINE      CODE     ---       #141
      0100205CH   LINE      CODE     ---       #142
      0100205FH   LINE      CODE     ---       #144
      01002065H   LINE      CODE     ---       #145
      01002065H   LINE      CODE     ---       #146
      01002068H   LINE      CODE     ---       #147
      01002077H   LINE      CODE     ---       #148
      01002079H   LINE      CODE     ---       #150
LX51 LINKER/LOCATER V3.64                                                             04/10/2014  16:48:41  PAGE 43


      0100207CH   LINE      CODE     ---       #151
      01002081H   LINE      CODE     ---       #153
      01002083H   LINE      CODE     ---       #154
      01002085H   LINE      CODE     ---       #157
      01002088H   LINE      CODE     ---       #158
      ---         BLOCKEND  ---      ---       LVL=0
      010022D4H   BLOCK     ---      ---       LVL=1
      00000007H   SYMBOL    DATA     BYTE      macReg
      00000005H   SYMBOL    DATA     BYTE      value
      010022D4H   LINE      CODE     ---       #200
      010022D4H   LINE      CODE     ---       #201
      010022D4H   LINE      CODE     ---       #202
      010022D6H   LINE      CODE     ---       #203
      010022D8H   LINE      CODE     ---       #204
      010022DDH   LINE      CODE     ---       #205
      010022E0H   LINE      CODE     ---       #206
      010022E2H   LINE      CODE     ---       #207
      010022E5H   LINE      CODE     ---       #208
      010022EAH   LINE      CODE     ---       #210
      010022ECH   LINE      CODE     ---       #211
      010022EEH   LINE      CODE     ---       #212
      ---         BLOCKEND  ---      ---       LVL=0
      010022EFH   BLOCK     ---      ---       LVL=1
      00000007H   SYMBOL    DATA     BYTE      macReg
      010022EFH   BLOCK     ---      ---       LVL=2
      00000007H   SYMBOL    DATA     BYTE      value
      ---         BLOCKEND  ---      ---       LVL=1
      010022EFH   LINE      CODE     ---       #224
      010022EFH   LINE      CODE     ---       #225
      010022EFH   LINE      CODE     ---       #228
      010022F1H   LINE      CODE     ---       #229
      010022F3H   LINE      CODE     ---       #230
      010022F5H   LINE      CODE     ---       #231
      010022F8H   LINE      CODE     ---       #232
      010022FBH   LINE      CODE     ---       #233
      010022FEH   LINE      CODE     ---       #234
      01002303H   LINE      CODE     ---       #235
      01002305H   LINE      CODE     ---       #236
      01002307H   LINE      CODE     ---       #237
      01002309H   LINE      CODE     ---       #239
      01002309H   LINE      CODE     ---       #240
      ---         BLOCKEND  ---      ---       LVL=0
      010020F1H   BLOCK     ---      ---       LVL=1
      00000007H   SYMBOL    DATA     BYTE      n
      00000004H   SYMBOL    DATA     ---       buffer
      010020F1H   LINE      CODE     ---       #292
      010020F1H   LINE      CODE     ---       #293
      010020F1H   LINE      CODE     ---       #294
      010020F3H   LINE      CODE     ---       #295
      010020F5H   LINE      CODE     ---       #296
      010020F8H   LINE      CODE     ---       #297
      010020FBH   LINE      CODE     ---       #298
      010020FDH   LINE      CODE     ---       #300
      01002103H   LINE      CODE     ---       #301
      01002103H   LINE      CODE     ---       #302
      01002105H   LINE      CODE     ---       #303
      01002108H   LINE      CODE     ---       #304
      0100210BH   LINE      CODE     ---       #305
      0100211AH   LINE      CODE     ---       #306
      0100211CH   LINE      CODE     ---       #308
      0100211EH   LINE      CODE     ---       #309
      01002120H   LINE      CODE     ---       #310
      ---         BLOCKEND  ---      ---       LVL=0
      0100230AH   BLOCK     ---      ---       LVL=1
      00000007H   SYMBOL    DATA     BYTE      macReg
LX51 LINKER/LOCATER V3.64                                                             04/10/2014  16:48:41  PAGE 44


      00000005H   SYMBOL    DATA     BYTE      value
      0100230AH   LINE      CODE     ---       #352
      0100230AH   LINE      CODE     ---       #353
      0100230AH   LINE      CODE     ---       #354
      0100230CH   LINE      CODE     ---       #355
      0100230EH   LINE      CODE     ---       #356
      01002313H   LINE      CODE     ---       #357
      01002316H   LINE      CODE     ---       #358
      01002318H   LINE      CODE     ---       #359
      0100231BH   LINE      CODE     ---       #360
      01002320H   LINE      CODE     ---       #362
      01002322H   LINE      CODE     ---       #363
      01002324H   LINE      CODE     ---       #364
      ---         BLOCKEND  ---      ---       LVL=0
      01002325H   BLOCK     ---      ---       LVL=1
      00000007H   SYMBOL    DATA     BYTE      macReg
      01002325H   BLOCK     ---      ---       LVL=2
      00000007H   SYMBOL    DATA     BYTE      value
      ---         BLOCKEND  ---      ---       LVL=1
      01002325H   LINE      CODE     ---       #377
      01002325H   LINE      CODE     ---       #378
      01002325H   LINE      CODE     ---       #381
      01002327H   LINE      CODE     ---       #382
      01002329H   LINE      CODE     ---       #383
      0100232BH   LINE      CODE     ---       #384
      0100232EH   LINE      CODE     ---       #385
      01002331H   LINE      CODE     ---       #386
      01002334H   LINE      CODE     ---       #387
      01002339H   LINE      CODE     ---       #388
      0100233BH   LINE      CODE     ---       #389
      0100233DH   LINE      CODE     ---       #390
      0100233FH   LINE      CODE     ---       #392
      0100233FH   LINE      CODE     ---       #393
      ---         BLOCKEND  ---      ---       LVL=0
      00000000H   BLOCK     ---      ---       LVL=1
      00000006H   SYMBOL    DATA     WORD      ticks
      00000000H   BLOCK     ---      ---       LVL=2
      ---         BLOCKEND  ---      ---       LVL=1
      ---         BLOCKEND  ---      ---       LVL=0
      01001E62H   BLOCK     ---      ---       LVL=1
      00000082H   SYMBOL    DATA     WORD      ticks
      01001E66H   BLOCK     ---      ---       LVL=2
      00000044H   SYMBOL    DATA     DWORD     i
      ---         BLOCKEND  ---      ---       LVL=1
      01001E62H   LINE      CODE     ---       #35
      01001E66H   LINE      CODE     ---       #36
      01001E66H   LINE      CODE     ---       #39
      01001E71H   LINE      CODE     ---       #40
      01001EA6H   LINE      CODE     ---       #41
      01001EB0H   LINE      CODE     ---       #45
      ---         BLOCKEND  ---      ---       LVL=0
      00000000H   BLOCK     ---      ---       LVL=1
      ---         BLOCKEND  ---      ---       LVL=0
      00000000H   BLOCK     ---      ---       LVL=1
      ---         BLOCKEND  ---      ---       LVL=0
      010023A1H   BLOCK     ---      ---       LVL=1
      010023A1H   LINE      CODE     ---       #90
      010023A1H   LINE      CODE     ---       #91
      010023A1H   LINE      CODE     ---       #92
      010023A4H   LINE      CODE     ---       #93
      010023A7H   LINE      CODE     ---       #94
      010023ADH   LINE      CODE     ---       #95
      010023B3H   LINE      CODE     ---       #96
      010023B6H   LINE      CODE     ---       #97
      ---         BLOCKEND  ---      ---       LVL=0
LX51 LINKER/LOCATER V3.64                                                             04/10/2014  16:48:41  PAGE 45


      00000000H   BLOCK     ---      ---       LVL=1
      00000004H   SYMBOL    DATA     DWORD     timeout
      00000000H   BLOCK     ---      ---       LVL=2
      ---         BLOCKEND  ---      ---       LVL=1
      ---         BLOCKEND  ---      ---       LVL=0
      00000000H   BLOCK     ---      ---       LVL=1
      ---         BLOCKEND  ---      ---       LVL=0
      00000000H   BLOCK     ---      ---       LVL=1
      00000006H   SYMBOL    DATA     WORD      timeout
      00000000H   BLOCK     ---      ---       LVL=2
      ---         BLOCKEND  ---      ---       LVL=1
      ---         BLOCKEND  ---      ---       LVL=0
      01001F4BH   BLOCK     ---      ---       LVL=1
      00000044H   SYMBOL    DATA     DWORD     longTime
      01001F53H   BLOCK     ---      ---       LVL=2
      00000048H   SYMBOL    DATA     ---       time
      00000003H   SYMBOL    DATA     BYTE      restoreInts
      ---         BLOCKEND  ---      ---       LVL=1
      01001F4BH   LINE      CODE     ---       #181
      01001F53H   LINE      CODE     ---       #182
      01001F53H   LINE      CODE     ---       #187
      01001F58H   LINE      CODE     ---       #188
      01001F5AH   LINE      CODE     ---       #190
      01001F5DH   LINE      CODE     ---       #191
      01001F60H   LINE      CODE     ---       #193
      01001F6FH   LINE      CODE     ---       #195
      01001F75H   LINE      CODE     ---       #197
      01001F80H   LINE      CODE     ---       #199
      01001F83H   LINE      CODE     ---       #200
      01001F86H   LINE      CODE     ---       #202
      01001F89H   LINE      CODE     ---       #203
      01001F8CH   LINE      CODE     ---       #205
      01001F8FH   LINE      CODE     ---       #206
      ---         BLOCKEND  ---      ---       LVL=0
      01002121H   BLOCK     ---      ---       LVL=1
      00000004H   SYMBOL    DATA     DWORD     longTime
      01002121H   BLOCK     ---      ---       LVL=2
      0000002BH   SYMBOL    DATA     ---       time
      ---         BLOCKEND  ---      ---       LVL=1
      01002121H   LINE      CODE     ---       #229
      01002121H   LINE      CODE     ---       #230
      01002121H   LINE      CODE     ---       #233
      01002124H   LINE      CODE     ---       #234
      01002127H   LINE      CODE     ---       #236
      0100212FH   LINE      CODE     ---       #238
      01002135H   LINE      CODE     ---       #240
      01002140H   LINE      CODE     ---       #242
      01002143H   LINE      CODE     ---       #243
      01002146H   LINE      CODE     ---       #245
      01002149H   LINE      CODE     ---       #246
      0100214CH   LINE      CODE     ---       #248
      ---         BLOCKEND  ---      ---       LVL=0
      0100214DH   BLOCK     ---      ---       LVL=1
      00000004H   SYMBOL    DATA     DWORD     longTime
      0100214DH   BLOCK     ---      ---       LVL=2
      00000037H   SYMBOL    DATA     ---       time
      ---         BLOCKEND  ---      ---       LVL=1
      0100214DH   LINE      CODE     ---       #275
      0100214DH   LINE      CODE     ---       #276
      0100214DH   LINE      CODE     ---       #279
      01002150H   LINE      CODE     ---       #280
      01002153H   LINE      CODE     ---       #282
      0100215BH   LINE      CODE     ---       #284
      01002161H   LINE      CODE     ---       #286
      0100216CH   LINE      CODE     ---       #288
LX51 LINKER/LOCATER V3.64                                                             04/10/2014  16:48:41  PAGE 46


      0100216FH   LINE      CODE     ---       #289
      01002172H   LINE      CODE     ---       #291
      01002175H   LINE      CODE     ---       #292
      01002178H   LINE      CODE     ---       #293
      ---         BLOCKEND  ---      ---       LVL=0
      01002234H   BLOCK     ---      ---       LVL=1
      01002234H   LINE      CODE     ---       #10
      01002234H   LINE      CODE     ---       #11
      01002234H   LINE      CODE     ---       #13
      01002237H   LINE      CODE     ---       #14
      0100223AH   LINE      CODE     ---       #15
      0100223DH   LINE      CODE     ---       #19
      01002240H   LINE      CODE     ---       #21
      01002243H   LINE      CODE     ---       #22
      01002246H   LINE      CODE     ---       #23
      01002249H   LINE      CODE     ---       #38
      0100224CH   LINE      CODE     ---       #39
      0100224FH   LINE      CODE     ---       #40
      01002252H   LINE      CODE     ---       #41
      01002254H   LINE      CODE     ---       #44
      01002256H   LINE      CODE     ---       #45
      ---         BLOCKEND  ---      ---       LVL=0
      010023B7H   BLOCK     ---      ---       LVL=1
      010023B7H   LINE      CODE     ---       #17
      010023B7H   LINE      CODE     ---       #18
      010023B7H   LINE      CODE     ---       #20
      010023BAH   LINE      CODE     ---       #22
      010023BDH   LINE      CODE     ---       #24
      010023C0H   LINE      CODE     ---       #26
      010023C3H   LINE      CODE     ---       #28
      010023C6H   LINE      CODE     ---       #30
      010023C9H   LINE      CODE     ---       #37
      ---         BLOCKEND  ---      ---       LVL=0
      01001E11H   BLOCK     ---      ---       LVL=1
      01001E11H   BLOCK     ---      ---       LVL=2
      00000006H   SYMBOL    DATA     WORD      delay
      ---         BLOCKEND  ---      ---       LVL=1
      01001E11H   LINE      CODE     ---       #48
      01001E11H   LINE      CODE     ---       #49
      01001E11H   LINE      CODE     ---       #53
      01001E14H   LINE      CODE     ---       #55
      01001E17H   LINE      CODE     ---       #56
      01001E1AH   LINE      CODE     ---       #57
      01001E1DH   LINE      CODE     ---       #59
      01001E20H   LINE      CODE     ---       #60
      01001E23H   LINE      CODE     ---       #61
      01001E26H   LINE      CODE     ---       #62
      01001E29H   LINE      CODE     ---       #63
      01001E2CH   LINE      CODE     ---       #64
      01001E2FH   LINE      CODE     ---       #65
      01001E32H   LINE      CODE     ---       #67
      01001E35H   LINE      CODE     ---       #68
      01001E37H   LINE      CODE     ---       #69
      01001E3AH   LINE      CODE     ---       #71
      01001E3DH   LINE      CODE     ---       #72
      01001E40H   LINE      CODE     ---       #73
      01001E43H   LINE      CODE     ---       #74
      01001E46H   LINE      CODE     ---       #75
      01001E49H   LINE      CODE     ---       #77
      01001E4CH   LINE      CODE     ---       #79
      01001E4EH   LINE      CODE     ---       #82
      01001E51H   LINE      CODE     ---       #83
      01001E55H   LINE      CODE     ---       #84
      01001E5EH   LINE      CODE     ---       #85
      01001E61H   LINE      CODE     ---       #86
LX51 LINKER/LOCATER V3.64                                                             04/10/2014  16:48:41  PAGE 47


      ---         BLOCKEND  ---      ---       LVL=0
      0100244EH   BLOCK     ---      ---       LVL=1
      0100244EH   LINE      CODE     ---       #135
      0100244EH   LINE      CODE     ---       #136
      0100244EH   LINE      CODE     ---       #137
      01002450H   LINE      CODE     ---       #139
      ---         BLOCKEND  ---      ---       LVL=0
      0100006CH   BLOCK     ---      ---       LVL=1
      0100006CH   LINE      CODE     ---       #145
      0100006CH   LINE      CODE     ---       #146
      0100006CH   LINE      CODE     ---       #149
      0100006FH   LINE      CODE     ---       #150
      01000072H   LINE      CODE     ---       #151
      ---         BLOCKEND  ---      ---       LVL=0
      010023CCH   BLOCK     ---      ---       LVL=1
      010023CCH   LINE      CODE     ---       #157
      010023CCH   LINE      CODE     ---       #158
      010023CCH   LINE      CODE     ---       #160
      010023CFH   LINE      CODE     ---       #161
      010023D2H   LINE      CODE     ---       #162
      010023D5H   LINE      CODE     ---       #163
      010023D8H   LINE      CODE     ---       #180
      010023DDH   LINE      CODE     ---       #181
      ---         BLOCKEND  ---      ---       LVL=0

      ---         MODULE    ---      ---       P2P_DEMO_TX_CALLBACKS
      00000022H.0 PUBLIC    BIT      BIT       FEZMACPRO_PACKETRECEIVED
      00000021H.7 PUBLIC    BIT      BIT       FEZMACPRO_ACKTIMEOUT
      00000021H.6 PUBLIC    BIT      BIT       FEZMACPRO_PACKETSENT
      00000021H.5 PUBLIC    BIT      BIT       FEZMACPRO_PACKETFORWARDING
      00000021H.4 PUBLIC    BIT      BIT       FEZMACPRO_LFTIMEREXPIRED
      00000021H.3 PUBLIC    BIT      BIT       FEZMACPRO_SYNCWORDRECEIVED
      00000021H.2 PUBLIC    BIT      BIT       FEZMACPRO_CRCERROR
      00000021H.1 PUBLIC    BIT      BIT       FEZMACPRO_PACKETDISCARDED
      00000021H.0 PUBLIC    BIT      BIT       FEZMACPRO_STATEERRORENTERED
      00000020H.7 PUBLIC    BIT      BIT       FEZMACPRO_ACKSENDING
      00000020H.6 PUBLIC    BIT      BIT       FEZMACPRO_STATEIDLEENTERED
      00000020H.5 PUBLIC    BIT      BIT       FEZMACPRO_LBTTIMEOUT
      00000020H.4 PUBLIC    BIT      BIT       FEZMACPRO_STATESLEEPENTERED
      00000020H.3 PUBLIC    BIT      BIT       FEZMACPRO_STATEWAKEUPENTERED
      00000020H.2 PUBLIC    BIT      BIT       FEZMACPRO_STATETXENTERED
      00000020H.1 PUBLIC    BIT      BIT       FEZMACPRO_STATERXENTERED
      00000020H.0 PUBLIC    BIT      BIT       FEZMACPRO_LOWBATTERY
      010023DEH   PUBLIC    CODE     ---       EZMACPRO_ACKSENDING
      01002475H   PUBLIC    CODE     ---       EZMACPRO_CRCERROR
      01002472H   PUBLIC    CODE     ---       EZMACPRO_ACKTIMEOUT
      0100246FH   PUBLIC    CODE     ---       EZMACPRO_LBTTIMEOUT
      0100246CH   PUBLIC    CODE     ---       EZMACPRO_PACKETSENT
      01002449H   PUBLIC    CODE     ---       _EZMACPRO_PACKETRECEIVED
      01002469H   PUBLIC    CODE     ---       EZMACPRO_PACKETDISCARDED
      01002466H   PUBLIC    CODE     ---       EZMACPRO_SYNCWORDRECEIVED
      01002463H   PUBLIC    CODE     ---       EZMACPRO_LOWBATTERY
      01002460H   PUBLIC    CODE     ---       EZMACPRO_LFTIMEREXPIRED
      0100245DH   PUBLIC    CODE     ---       EZMACPRO_STATEERRORENTERED
      0100245AH   PUBLIC    CODE     ---       EZMACPRO_STATETXENTERED
      01002457H   PUBLIC    CODE     ---       EZMACPRO_STATEIDLEENTERED
      01002454H   PUBLIC    CODE     ---       EZMACPRO_STATESLEEPENTERED
      01002451H   PUBLIC    CODE     ---       EZMACPRO_STATEWAKEUPENTERED
      00000000H   SYMBOL    CODE     WORD      _ICE_DUMMY_
      01002451H   BLOCK     ---      ---       LVL=1
      01002451H   LINE      CODE     ---       #53
      01002451H   LINE      CODE     ---       #54
      01002451H   LINE      CODE     ---       #55
      01002453H   LINE      CODE     ---       #56
      ---         BLOCKEND  ---      ---       LVL=0
LX51 LINKER/LOCATER V3.64                                                             04/10/2014  16:48:41  PAGE 48


      01002454H   BLOCK     ---      ---       LVL=1
      01002454H   LINE      CODE     ---       #61
      01002454H   LINE      CODE     ---       #62
      01002454H   LINE      CODE     ---       #63
      01002456H   LINE      CODE     ---       #64
      ---         BLOCKEND  ---      ---       LVL=0
      01002457H   BLOCK     ---      ---       LVL=1
      01002457H   LINE      CODE     ---       #69
      01002457H   LINE      CODE     ---       #70
      01002457H   LINE      CODE     ---       #71
      01002459H   LINE      CODE     ---       #72
      ---         BLOCKEND  ---      ---       LVL=0
      00000000H   BLOCK     ---      ---       LVL=1
      ---         BLOCKEND  ---      ---       LVL=0
      0100245AH   BLOCK     ---      ---       LVL=1
      0100245AH   LINE      CODE     ---       #85
      0100245AH   LINE      CODE     ---       #86
      0100245AH   LINE      CODE     ---       #87
      0100245CH   LINE      CODE     ---       #88
      ---         BLOCKEND  ---      ---       LVL=0
      0100245DH   BLOCK     ---      ---       LVL=1
      0100245DH   LINE      CODE     ---       #93
      0100245DH   LINE      CODE     ---       #94
      0100245DH   LINE      CODE     ---       #95
      0100245FH   LINE      CODE     ---       #96
      ---         BLOCKEND  ---      ---       LVL=0
      01002460H   BLOCK     ---      ---       LVL=1
      01002460H   LINE      CODE     ---       #99
      01002460H   LINE      CODE     ---       #100
      01002460H   LINE      CODE     ---       #101
      01002462H   LINE      CODE     ---       #102
      ---         BLOCKEND  ---      ---       LVL=0
      01002463H   BLOCK     ---      ---       LVL=1
      01002463H   LINE      CODE     ---       #105
      01002463H   LINE      CODE     ---       #106
      01002463H   LINE      CODE     ---       #107
      01002465H   LINE      CODE     ---       #108
      ---         BLOCKEND  ---      ---       LVL=0
      01002466H   BLOCK     ---      ---       LVL=1
      01002466H   LINE      CODE     ---       #112
      01002466H   LINE      CODE     ---       #113
      01002466H   LINE      CODE     ---       #114
      01002468H   LINE      CODE     ---       #115
      ---         BLOCKEND  ---      ---       LVL=0
      01002469H   BLOCK     ---      ---       LVL=1
      01002469H   LINE      CODE     ---       #120
      01002469H   LINE      CODE     ---       #121
      01002469H   LINE      CODE     ---       #122
      0100246BH   LINE      CODE     ---       #123
      ---         BLOCKEND  ---      ---       LVL=0
      01002449H   BLOCK     ---      ---       LVL=1
      00000007H   SYMBOL    DATA     BYTE      rssi
      01002449H   BLOCK     ---      ---       LVL=2
      00000028H   SYMBOL    DATA     BYTE      rssiVal
      ---         BLOCKEND  ---      ---       LVL=1
      01002449H   LINE      CODE     ---       #128
      01002449H   LINE      CODE     ---       #129
      01002449H   LINE      CODE     ---       #132
      0100244BH   LINE      CODE     ---       #133
      0100244DH   LINE      CODE     ---       #134
      ---         BLOCKEND  ---      ---       LVL=0
      0100246CH   BLOCK     ---      ---       LVL=1
      0100246CH   LINE      CODE     ---       #147
      0100246CH   LINE      CODE     ---       #148
      0100246CH   LINE      CODE     ---       #149
LX51 LINKER/LOCATER V3.64                                                             04/10/2014  16:48:41  PAGE 49


      0100246EH   LINE      CODE     ---       #150
      ---         BLOCKEND  ---      ---       LVL=0
      0100246FH   BLOCK     ---      ---       LVL=1
      0100246FH   LINE      CODE     ---       #155
      0100246FH   LINE      CODE     ---       #156
      0100246FH   LINE      CODE     ---       #157
      01002471H   LINE      CODE     ---       #158
      ---         BLOCKEND  ---      ---       LVL=0
      01002472H   BLOCK     ---      ---       LVL=1
      01002472H   LINE      CODE     ---       #164
      01002472H   LINE      CODE     ---       #165
      01002472H   LINE      CODE     ---       #166
      01002474H   LINE      CODE     ---       #167
      ---         BLOCKEND  ---      ---       LVL=0
      01002475H   BLOCK     ---      ---       LVL=1
      01002475H   LINE      CODE     ---       #172
      01002475H   LINE      CODE     ---       #173
      01002475H   LINE      CODE     ---       #174
      01002477H   LINE      CODE     ---       #175
      ---         BLOCKEND  ---      ---       LVL=0
      010023DEH   BLOCK     ---      ---       LVL=1
      010023DEH   BLOCK     ---      ---       LVL=2
      020000D4H   SYMBOL    XDATA    BYTE      i
      ---         BLOCKEND  ---      ---       LVL=1
      010023DEH   LINE      CODE     ---       #180
      010023DEH   LINE      CODE     ---       #181
      010023DEH   LINE      CODE     ---       #184
      010023E0H   LINE      CODE     ---       #186
      010023E6H   LINE      CODE     ---       #187
      ---         BLOCKEND  ---      ---       LVL=0

      ---         MODULE    ---      ---       ?C_STARTUP
      01000000H   PUBLIC    CODE     ---       ?C_STARTUP
      000000E0H   SYMBOL    DATA     ---       ACC
      000000F0H   SYMBOL    DATA     ---       B
      00000083H   SYMBOL    DATA     ---       DPH
      00000082H   SYMBOL    DATA     ---       DPL
      00000000H   SYMBOL    NUMBER   ---       IBPSTACK
      00000100H   SYMBOL    NUMBER   ---       IBPSTACKTOP
      00000080H   SYMBOL    NUMBER   ---       IDATALEN
      010019EDH   SYMBOL    CODE     ---       IDATALOOP
      00000000H   SYMBOL    NUMBER   ---       PBPSTACK
      00000100H   SYMBOL    NUMBER   ---       PBPSTACKTOP
      000000D9H   SYMBOL    DATA     ---       PCA0MD
      00000000H   SYMBOL    NUMBER   ---       PDATALEN
      00000000H   SYMBOL    NUMBER   ---       PDATASTART
      00000000H   SYMBOL    NUMBER   ---       PPAGE
      00000000H   SYMBOL    NUMBER   ---       PPAGEENABLE
      000000A0H   SYMBOL    DATA     ---       PPAGE_SFR
      00000081H   SYMBOL    DATA     ---       SP
      010019E7H   SYMBOL    CODE     ---       STARTUP1
      010019E7H   SYMBOL    CODE     ---       WDT_DISABLE
      00000000H   SYMBOL    NUMBER   ---       XBPSTACK
      00001000H   SYMBOL    NUMBER   ---       XBPSTACKTOP
      00001000H   SYMBOL    NUMBER   ---       XDATALEN
      010019F8H   SYMBOL    CODE     ---       XDATALOOP
      00000000H   SYMBOL    NUMBER   ---       XDATASTART
      01000000H   LINE      CODE     ---       #129
      010019E7H   LINE      CODE     ---       #135
      010019EAH   LINE      CODE     ---       #138
      010019ECH   LINE      CODE     ---       #139
      010019EDH   LINE      CODE     ---       #140
      010019EEH   LINE      CODE     ---       #141
      010019F0H   LINE      CODE     ---       #145
      010019F3H   LINE      CODE     ---       #146
LX51 LINKER/LOCATER V3.64                                                             04/10/2014  16:48:41  PAGE 50


      010019F5H   LINE      CODE     ---       #150
      010019F7H   LINE      CODE     ---       #152
      010019F8H   LINE      CODE     ---       #153
      010019F9H   LINE      CODE     ---       #154
      010019FAH   LINE      CODE     ---       #155
      010019FCH   LINE      CODE     ---       #156
      010019FEH   LINE      CODE     ---       #190
      01001A01H   LINE      CODE     ---       #201

      ---         MODULE    ---      ---       ?C_INIT
      01001A3FH   PUBLIC    CODE     ---       ?C_START

      ---         MODULE    ---      ---       ?C?CLDOPTR
      0100122FH   PUBLIC    CODE     ---       ?C?CLDOPTR

      ---         MODULE    ---      ---       ?C?CSTPTR
      0100125CH   PUBLIC    CODE     ---       ?C?CSTPTR

      ---         MODULE    ---      ---       ?C?CSTOPTR
      0100126EH   PUBLIC    CODE     ---       ?C?CSTOPTR

      ---         MODULE    ---      ---       ?C?IMUL
      01001290H   PUBLIC    CODE     ---       ?C?IMUL

      ---         MODULE    ---      ---       ?C?LMUL
      010012A2H   PUBLIC    CODE     ---       ?C?LMUL

      ---         MODULE    ---      ---       ?C?ULCMP
      010012F1H   PUBLIC    CODE     ---       ?C?ULCMP

      ---         MODULE    ---      ---       ?C?OFFXADD
      01001302H   PUBLIC    CODE     ---       ?C?OFFXADD

      ---         MODULE    ---      ---       PRINTF
      00000042H   PUBLIC    DATA     ---       ?_PRINTF517?BYTE
      00000042H   PUBLIC    DATA     ---       ?_PRINTF?BYTE
      00000042H   PUBLIC    DATA     ---       ?_SPRINTF517?BYTE
      00000042H   PUBLIC    DATA     ---       ?_SPRINTF?BYTE
      01000497H   PUBLIC    CODE     ---       _PRINTF
      01000497H   PUBLIC    CODE     ---       _PRINTF517
      01000491H   PUBLIC    CODE     ---       _SPRINTF
      01000491H   PUBLIC    CODE     ---       _SPRINTF517

      ---         MODULE    ---      ---       ?C?MEMSET
      0100130EH   PUBLIC    CODE     ---       ?C?MEMSET

      ---         MODULE    ---      ---       ?C?CLDPTR
      0100133AH   PUBLIC    CODE     ---       ?C?CLDPTR

      ---         MODULE    ---      ---       ?C?PLDIIDATA
      01001353H   PUBLIC    CODE     ---       ?C?PLDIIDATA

      ---         MODULE    ---      ---       ?C?CCASE
      01001363H   PUBLIC    CODE     ---       ?C?CCASE

      ---         MODULE    ---      ---       PUTCHAR
      01002179H   PUBLIC    CODE     ---       _PUTCHAR

Program Size: data=143.3 xdata=213 const=0 code=9336
LX51 RUN COMPLETE.  0 WARNING(S),  0 ERROR(S)
