LX51 LINKER/LOCATER V3.64                                                               01/15/2014  19:23:23  PAGE 1


LX51 LINKER/LOCATER V3.64, INVOKED BY:
C:\KEIL\C51\BIN\LX51.EXE D:\01_project\20_안전모\02_source_EzMAC\EzMacPro(SI1000)\EZMacPRO reference C Code\stack\EZMacP
>> ro.obj, D:\01_project\20_안전모\02_source_EzMAC\EzMacPro(SI1000)\EZMacPRO reference C Code\stack\EZMacPro_Const.obj, 
>> D:\01_project\20_안전모\02_source_EzMAC\EzMacPro(SI1000)\EZMacPRO reference C Code\stack\EZMacPro_ExternalInt.obj, D:
>> \01_project\20_안전모\02_source_EzMAC\EzMacPro(SI1000)\EZMacPRO reference C Code\stack\EZMacPro_TimerInt.obj, D:\01_p
>> roject\20_안전모\02_source_EzMAC\EzMacPro(SI1000)\EZMacPRO reference C Code\application\p2p_demo\fwd_node\main.obj, D
>> :\01_project\20_안전모\02_source_EzMAC\EzMacPro(SI1000)\EZMacPRO reference C Code\application\p2p_demo\fwd_node\p2p_d
>> emo_fwd_menu.obj, D:\01_project\20_안전모\02_source_EzMAC\EzMacPro(SI1000)\EZMacPRO reference C Code\application\p2p_
>> demo\fwd_node\p2p_demo_fwd_node.obj, D:\01_project\20_안전모\02_source_EzMAC\EzMacPro(SI1000)\EZMacPRO reference C Co
>> de\application\p2p_demo\fwd_node\p2p_demo_fwd_callbacks.obj, D:\01_project\20_안전모\02_source_EzMAC\EzMacPro(SI1000)
>> \EZMacPRO reference C Code\bsp\bsp.obj, D:\01_project\20_안전모\02_source_EzMAC\EzMacPro(SI1000)\EZMacPRO reference C
>>  Code\bsp\STARTUP.obj TO D:\01_project\20_안전모\02_source_EzMAC\EzMacPro(SI1000)\EZMacPRO reference C Code\applicati
>> on\p2p_demo\fwd_node\p2p_demo_fwd_node_SI1000MB_KEIL.omf REMOVEUNUSED


CPU MODE:     8051 MODE
MEMORY MODEL: SMALL


INPUT MODULES INCLUDED:
  D:\01_project\20_안전모\02_source_EzMAC\EzMacPro(SI1000)\EZMacPRO reference C Code\stack\EZMacPro.obj (EZMACPRO)
         COMMENT TYPE 1: C51 Compiler
  D:\01_project\20_안전모\02_source_EzMAC\EzMacPro(SI1000)\EZMacPRO reference C Code\stack\EZMacPro_Const.obj (EZMACPRO_
>> CONST)
         COMMENT TYPE 1: C51 Compiler
  D:\01_project\20_안전모\02_source_EzMAC\EzMacPro(SI1000)\EZMacPRO reference C Code\stack\EZMacPro_ExternalInt.obj (EZM
>> ACPRO_EXTERNALINT)
         COMMENT TYPE 1: C51 Compiler
  D:\01_project\20_안전모\02_source_EzMAC\EzMacPro(SI1000)\EZMacPRO reference C Code\stack\EZMacPro_TimerInt.obj (EZMACP
>> RO_TIMERINT)
         COMMENT TYPE 1: C51 Compiler
  D:\01_project\20_안전모\02_source_EzMAC\EzMacPro(SI1000)\EZMacPRO reference C Code\application\p2p_demo\fwd_node\main.
>> obj (MAIN)
         COMMENT TYPE 1: C51 Compiler
  D:\01_project\20_안전모\02_source_EzMAC\EzMacPro(SI1000)\EZMacPRO reference C Code\application\p2p_demo\fwd_node\p2p_d
>> emo_fwd_menu.obj (P2P_DEMO_FWD_MENU)
         COMMENT TYPE 1: C51 Compiler
  D:\01_project\20_안전모\02_source_EzMAC\EzMacPro(SI1000)\EZMacPRO reference C Code\application\p2p_demo\fwd_node\p2p_d
>> emo_fwd_node.obj (P2P_DEMO_FWD_NODE)
         COMMENT TYPE 1: C51 Compiler
  D:\01_project\20_안전모\02_source_EzMAC\EzMacPro(SI1000)\EZMacPRO reference C Code\application\p2p_demo\fwd_node\p2p_d
>> emo_fwd_callbacks.obj (P2P_DEMO_FWD_CALLBACKS)
         COMMENT TYPE 1: C51 Compiler
  D:\01_project\20_안전모\02_source_EzMAC\EzMacPro(SI1000)\EZMacPRO reference C Code\bsp\bsp.obj (BSP)
         COMMENT TYPE 1: C51 Compiler
  D:\01_project\20_안전모\02_source_EzMAC\EzMacPro(SI1000)\EZMacPRO reference C Code\bsp\STARTUP.obj (?C_STARTUP)
         COMMENT TYPE 1: A51 / ASM51 Assembler
  C:\KEIL\C51\LIB\C51S.LIB (?C_INIT)
         COMMENT TYPE 1: A51 / ASM51 Assembler
  C:\KEIL\C51\LIB\C51S.LIB (?C?COPY)
         COMMENT TYPE 1: A51 / ASM51 Assembler
  C:\KEIL\C51\LIB\C51S.LIB (?C?CSTPTR)
         COMMENT TYPE 1: A51 / ASM51 Assembler
  C:\KEIL\C51\LIB\C51S.LIB (?C?IMUL)
         COMMENT TYPE 1: A51 / ASM51 Assembler
  C:\KEIL\C51\LIB\C51S.LIB (?C?LMUL)
         COMMENT TYPE 1: A51 / ASM51 Assembler
  C:\KEIL\C51\LIB\C51S.LIB (?C?SLCMP)
         COMMENT TYPE 1: A51 / ASM51 Assembler
  C:\KEIL\C51\LIB\C51S.LIB (?C?ULCMP)
         COMMENT TYPE 1: A51 / ASM51 Assembler
  C:\KEIL\C51\LIB\C51S.LIB (?C?OFFXADD)
         COMMENT TYPE 1: A51 / ASM51 Assembler
  C:\KEIL\C51\LIB\C51S.LIB (PRINTF)
         COMMENT TYPE 1: A51 / ASM51 Assembler
  C:\KEIL\C51\LIB\C51S.LIB (ATOI)
LX51 LINKER/LOCATER V3.64                                                             01/15/2014  19:23:23  PAGE 2


         COMMENT TYPE 1: C51 Compiler
  C:\KEIL\C51\LIB\C51S.LIB (?C?CLDPTR)
         COMMENT TYPE 1: A51 / ASM51 Assembler
  C:\KEIL\C51\LIB\C51S.LIB (?C?CLDOPTR)
         COMMENT TYPE 1: A51 / ASM51 Assembler
  C:\KEIL\C51\LIB\C51S.LIB (?C?PLDIIDATA)
         COMMENT TYPE 1: A51 / ASM51 Assembler
  C:\KEIL\C51\LIB\C51S.LIB (?C?CCASE)
         COMMENT TYPE 1: A51 / ASM51 Assembler
  C:\KEIL\C51\LIB\C51S.LIB (PUTCHAR)
         COMMENT TYPE 1: A51 / ASM51 Assembler
  C:\KEIL\C51\LIB\C51S.LIB (ISDIGIT)
         COMMENT TYPE 1: C51 Compiler
  C:\KEIL\C51\LIB\C51S.LIB (ISSPACE)
         COMMENT TYPE 1: C51 Compiler


ACTIVE MEMORY CLASSES OF MODULE:  D:\01_project\20_안전모\02_source_EzMAC\EzMacPro(SI1000)\EZMacPRO reference C Code\app
>> lication\p2p_demo\fwd_node\p2p_demo_fwd_node_SI1000MB_KEIL.omf (EZMACPRO)

BASE        START       END         USED      MEMORY CLASS
==========================================================
C:000000H   C:000000H   C:00FFFFH   002748H   CODE
I:000000H   I:000000H   I:00007FH   00005FH   DATA
I:000020H.0 I:000020H.0 I:00002FH.7 000003H.3 BIT
I:000000H   I:000000H   I:0000FFH   000027H   IDATA
X:000000H   X:000000H   X:00FFFFH   0000B0H   XDATA


MEMORY MAP OF MODULE:  D:\01_project\20_안전모\02_source_EzMAC\EzMacPro(SI1000)\EZMacPRO reference C Code\application\p2
>> p_demo\fwd_node\p2p_demo_fwd_node_SI1000MB_KEIL.omf (EZMACPRO)


START     STOP      LENGTH    ALIGN  RELOC    MEMORY CLASS   SEGMENT NAME
=========================================================================

* * * * * * * * * * *   D A T A   M E M O R Y   * * * * * * * * * * * * *
000000H   000007H   000008H   ---    AT..     DATA           "REG BANK 0"
000008H   00000DH   000006H   BYTE   UNIT     DATA           ?DT?BSP
00000EH   000010H   000003H   BYTE   UNIT     DATA           ?DT?EZMACPRO_EXTERNALINT
000011H   000012H   000002H   BYTE   UNIT     DATA           ?DT?EZMACPRO_TIMERINT
000013H.0 00001FH.7 00000DH.0 ---    ---      **GAP**
000020H.0 000022H.0 000002H.1 BIT    UNIT     BIT            ?BI?P2P_DEMO_FWD_CALLBACKS
000022H.1 000023H.1 000001H.1 BIT    UNIT     BIT            _BIT_GROUP_
000023H.2 000023H.2 000000H.1 BIT    UNIT     BIT            ?BI?EZMACPRO
000023H.3 000023H   000000H.5 ---    ---      **GAP**
000024H   00004EH   00002BH   BYTE   UNIT     DATA           _DATA_GROUP_
00004FH   00006FH   000021H   BYTE   UNIT     DATA           ?DT?EZMACPRO
000070H   000095H   000026H   BYTE   UNIT     IDATA          ?ID?EZMACPRO
000096H   000096H   000001H   BYTE   UNIT     IDATA          ?STACK

* * * * * * * * * * *   C O D E   M E M O R Y   * * * * * * * * * * * * *
000000H   000002H   000003H   ---    OFFS..   CODE           ?CO??C_STARTUP?0
000003H   000005H   000003H   ---    OFFS..   CODE           ?CO?EZMACPRO_EXTERNALINT?0
000006H   00006BH   000066H   BYTE   UNIT     CODE           ?CO?EZMACPRO_CONST
00006CH   000072H   000007H   BYTE   UNIT     CODE           ?PR?INTERRUPTINIT?BSP
000073H   000075H   000003H   ---    OFFS..   CODE           ?CO?EZMACPRO_TIMERINT?0
000076H   000511H   00049CH   BYTE   UNIT     CODE           ?PR?_EXTINTRX_STATEMACHINE?EZMACPRO_EXTERNALINT
000512H   00086DH   00035CH   BYTE   UNIT     CODE           ?PR?PRINTF?PRINTF
00086EH   000B35H   0002C8H   BYTE   UNIT     CODE           ?PR?_EZMACPRO_REG_WRITE?EZMACPRO
000B36H   000D5CH   000227H   BYTE   UNIT     CODE           ?PR?_TIMERINTRX_STATEMACHINE?EZMACPRO_TIMERINT
000D5DH   000F79H   00021DH   BYTE   UNIT     CODE           ?PR?_SETRFPARAMETERS?EZMACPRO
000F7AH   001191H   000218H   BYTE   UNIT     CODE           ?C?LIB_CODE
001192H   001375H   0001E4H   BYTE   UNIT     CODE           ?PR?_MACUPDATEDYNAMICTIMEOUTS?EZMACPRO
001376H   00151BH   0001A6H   BYTE   UNIT     CODE           ?PR?_TIMERINTTX_STATEMACHINE?EZMACPRO_TIMERINT
LX51 LINKER/LOCATER V3.64                                                             01/15/2014  19:23:23  PAGE 3


00151CH   001677H   00015CH   BYTE   UNIT     CODE           ?PR?_EXTINTTX_STATEMACHINE?EZMACPRO_EXTERNALINT
001678H   0017B4H   00013DH   BYTE   UNIT     CODE           ?PR?EZMACPRO_INIT?EZMACPRO
0017B5H   0018B0H   0000FCH   BYTE   UNIT     CODE           ?PR?_EZMACPRO_ACK_WRITE?EZMACPRO
0018B1H   0019A7H   0000F7H   BYTE   UNIT     CODE           ?CO?P2P_DEMO_FWD_NODE
0019A8H   001A56H   0000AFH   BYTE   UNIT     CODE           ?PR?EZMACPRO_RECEIVE?EZMACPRO
001A57H   001B04H   0000AEH   BYTE   UNIT     CODE           ?PR?_ATOI?ATOI
001B05H   001BABH   0000A7H   BYTE   UNIT     CODE           ?PR?VP2P_DEMO_FWDINIT?P2P_DEMO_FWD_NODE
001BACH   001C51H   0000A6H   BYTE   UNIT     CODE           ?PR?EXTINTPACKETNEEDSFORWARDING?EZMACPRO_EXTERNALINT
001C52H   001CEEH   00009DH   BYTE   UNIT     CODE           ?C_C51STARTUP
001CEFH   001D8AH   00009CH   BYTE   UNIT     CODE           ?PR?EXTERNALINTISR?EZMACPRO_EXTERNALINT
001D8BH   001E11H   000087H   BYTE   UNIT     CODE           ?PR?EXTINTBADADDRERROR?EZMACPRO_EXTERNALINT
001E12H   001E8DH   00007CH   BYTE   UNIT     CODE           ?PR?_EXTINTGOTONEXTSTATEUSINGSECR?EZMACPRO_EXTERNALINT
001E8EH   001F09H   00007CH   BYTE   UNIT     CODE           ?PR?TIMERINTT3_ISR?EZMACPRO_TIMERINT
001F0AH   001F85H   00007CH   BYTE   UNIT     CODE           ?PR?_TIMERINTGOTONEXTSTATEUSINGSECR?EZMACPRO_TIMERINT
001F86H   001FF8H   000073H   BYTE   UNIT     CODE           ?PR?EZMACPRO_WAKE_UP?EZMACPRO
001FF9H   002058H   000060H   BYTE   UNIT     CODE           ?PR?VP2P_DEMO_FWDPACKET?P2P_DEMO_FWD_NODE
002059H   0020A7H   00004FH   BYTE   UNIT     CODE           ?PR?_DELAY_MS?BSP
0020A8H   0020F5H   00004EH   BYTE   UNIT     CODE           ?PR?_MACUPDATELBTI?EZMACPRO
0020F6H   002141H   00004CH   BYTE   UNIT     CODE           ?PR?EXTINTHEADERERROR?EZMACPRO_EXTERNALINT
002142H   00218DH   00004CH   BYTE   UNIT     CODE           ?PR?PORTINIT?BSP
00218EH   0021D2H   000045H   BYTE   UNIT     CODE           ?PR?_MACTIMEOUT?BSP
0021D3H   002215H   000043H   BYTE   UNIT     CODE           ?PR?_EXTINTWAKEUP?EZMACPRO_EXTERNALINT
002216H   002256H   000041H   BYTE   UNIT     CODE           ?PR?TIMERINTNEXTRX_CHANNEL?EZMACPRO_TIMERINT
002257H   002292H   00003CH   BYTE   UNIT     CODE           ?CO?BSP
002293H   0022CCH   00003AH   BYTE   UNIT     CODE           ?PR?INITFORWARDEDPACKETTABLE?EZMACPRO
0022CDH   002303H   000037H   BYTE   UNIT     CODE           ?PR?EXTINTNEXTRX_CHANNEL?EZMACPRO_EXTERNALINT
002304H   002336H   000033H   BYTE   UNIT     CODE           ?PR?_EZMACPRO_RXBUF_READ?EZMACPRO
002337H   002366H   000030H   BYTE   UNIT     CODE           ?PR?_EXTINTSPIREADFIFO?BSP
002367H   002394H   00002EH   BYTE   UNIT     CODE           ?PR?STATEMACHINE?P2P_DEMO_FWD_NODE
002395H   0023C2H   00002EH   BYTE   UNIT     CODE           ?PR?_EXTINTSPIWRITEFIFO?BSP
0023C3H   0023EEH   00002CH   BYTE   UNIT     CODE           ?PR?_EXTINTTIMEOUT?BSP
0023EFH   00241AH   00002CH   BYTE   UNIT     CODE           ?PR?_TIMERINTTIMEOUT?BSP
00241BH   002444H   00002AH   BYTE   UNIT     CODE           ?PR?_TIMERINTSETFUNCTION1?EZMACPRO_TIMERINT
002445H   00246BH   000027H   BYTE   UNIT     CODE           ?PR?PUTCHAR?PUTCHAR
00246CH   002491H   000026H   BYTE   UNIT     CODE           ?C_INITSEG
002492H   0024B7H   000026H   BYTE   UNIT     CODE           ?PR?_MACSPIWRITEREG?BSP
0024B8H   0024DDH   000026H   BYTE   UNIT     CODE           ?PR?_MACSPIREADREG?BSP
0024DEH   002501H   000024H   BYTE   UNIT     CODE           ?PR?_EXTINTSETFUNCTION1?EZMACPRO_EXTERNALINT
002502H   002524H   000023H   BYTE   UNIT     CODE           ?PR?UART0INIT?BSP
002525H   002546H   000022H   BYTE   UNIT     CODE           ?PR?_MACSETFUNCTION1?EZMACPRO
002547H   002562H   00001CH   BYTE   UNIT     CODE           ?PR?_EXTINTINCREMENTERROR?EZMACPRO_EXTERNALINT
002563H   00257EH   00001CH   BYTE   UNIT     CODE           ?PR?_TIMERINTINCREMENTERROR?EZMACPRO_TIMERINT
00257FH   002599H   00001BH   BYTE   UNIT     CODE           ?PR?_EXTINTSPIWRITEREG?BSP
00259AH   0025B4H   00001BH   BYTE   UNIT     CODE           ?PR?_EXTINTSPIREADREG?BSP
0025B5H   0025CFH   00001BH   BYTE   UNIT     CODE           ?PR?_TIMERINTSPIWRITEREG?BSP
0025D0H   0025EAH   00001BH   BYTE   UNIT     CODE           ?PR?_TIMERINTSPIREADREG?BSP
0025EBH   002603H   000019H   BYTE   UNIT     CODE           ?PR?_MACSETENABLE2?EZMACPRO
002604H   00261CH   000019H   BYTE   UNIT     CODE           ?PR?_EXTINTSETENABLE2?EZMACPRO_EXTERNALINT
00261DH   002635H   000019H   BYTE   UNIT     CODE           ?PR?_TIMERINTSETENABLE2?EZMACPRO_TIMERINT
002636H   00264BH   000016H   BYTE   UNIT     CODE           ?PR?TIMERINTRANDOM?EZMACPRO_TIMERINT
00264CH   002661H   000016H   BYTE   UNIT     CODE           ?PR?TIMER3INIT?BSP
002662H   002676H   000015H   BYTE   UNIT     CODE           ?PR?BOARDINIT?BSP
002677H   002689H   000013H   BYTE   UNIT     CODE           ?PR?_ISSPACE?ISSPACE
00268AH   00269BH   000012H   BYTE   UNIT     CODE           ?PR?SYSTEMCLKINIT?BSP
00269CH   0026ACH   000011H   BYTE   UNIT     CODE           ?PR?EZMACPRO_ACKSENDING?P2P_DEMO_FWD_CALLBACKS
0026ADH   0026BBH   00000FH   BYTE   UNIT     CODE           ?PR?_MACSPECIALREGISTERSETTINGS?EZMACPRO
0026BCH   0026CAH   00000FH   BYTE   UNIT     CODE           ?PR?EXTINTDISABLEINTERRUPTS?EZMACPRO_EXTERNALINT
0026CBH   0026D9H   00000FH   BYTE   UNIT     CODE           ?PR?TIMERINTDISABLEINTERRUPTS?EZMACPRO_TIMERINT
0026DAH   0026E8H   00000FH   BYTE   UNIT     CODE           ?PR?SPI1INIT?BSP
0026E9H   0026F7H   00000FH   BYTE   UNIT     CODE           ?PR?_ISDIGIT?ISDIGIT
0026F8H   002703H   00000CH   BYTE   UNIT     CODE           ?PR?TIMERINTWAKEUP?EZMACPRO_TIMERINT
002704H   00270DH   00000AH   BYTE   UNIT     CODE           ?PR?STATEMACHINE_INIT?P2P_DEMO_FWD_NODE
00270EH   002715H   000008H   BYTE   UNIT     CODE           ?PR?MAIN?MAIN
002716H   00271AH   000005H   BYTE   UNIT     CODE           ?PR?_EZMACPRO_PACKETRECEIVED?P2P_DEMO_FWD_CALLBACKS
00271BH   00271DH   000003H   BYTE   UNIT     CODE           ?PR?EZMACPRO_STATEWAKEUPENTERED?P2P_DEMO_FWD_CALLBACKS
LX51 LINKER/LOCATER V3.64                                                             01/15/2014  19:23:23  PAGE 4


00271EH   002720H   000003H   BYTE   UNIT     CODE           ?PR?EZMACPRO_STATESLEEPENTERED?P2P_DEMO_FWD_CALLBACKS
002721H   002723H   000003H   BYTE   UNIT     CODE           ?PR?EZMACPRO_STATEIDLEENTERED?P2P_DEMO_FWD_CALLBACKS
002724H   002726H   000003H   BYTE   UNIT     CODE           ?PR?EZMACPRO_STATERXENTERED?P2P_DEMO_FWD_CALLBACKS
002727H   002729H   000003H   BYTE   UNIT     CODE           ?PR?EZMACPRO_STATEERRORENTERED?P2P_DEMO_FWD_CALLBACKS
00272AH   00272CH   000003H   BYTE   UNIT     CODE           ?PR?EZMACPRO_LFTIMEREXPIRED?P2P_DEMO_FWD_CALLBACKS
00272DH   00272FH   000003H   BYTE   UNIT     CODE           ?PR?EZMACPRO_LOWBATTERY?P2P_DEMO_FWD_CALLBACKS
002730H   002732H   000003H   BYTE   UNIT     CODE           ?PR?EZMACPRO_SYNCWORDRECEIVED?P2P_DEMO_FWD_CALLBACKS
002733H   002735H   000003H   BYTE   UNIT     CODE           ?PR?EZMACPRO_PACKETDISCARDED?P2P_DEMO_FWD_CALLBACKS
002736H   002738H   000003H   BYTE   UNIT     CODE           ?PR?EZMACPRO_PACKETFORWARDING?P2P_DEMO_FWD_CALLBACKS
002739H   00273BH   000003H   BYTE   UNIT     CODE           ?PR?EZMACPRO_PACKETSENT?P2P_DEMO_FWD_CALLBACKS
00273CH   00273EH   000003H   BYTE   UNIT     CODE           ?PR?EZMACPRO_LBTTIMEOUT?P2P_DEMO_FWD_CALLBACKS
00273FH   002741H   000003H   BYTE   UNIT     CODE           ?PR?EZMACPRO_ACKTIMEOUT?P2P_DEMO_FWD_CALLBACKS
002742H   002744H   000003H   BYTE   UNIT     CODE           ?PR?EZMACPRO_CRCERROR?P2P_DEMO_FWD_CALLBACKS
002745H   002747H   000003H   BYTE   UNIT     CODE           ?PR?LEDINIT?BSP

* * * * * * * * * * *  X D A T A   M E M O R Y  * * * * * * * * * * * * *
000000H   000067H   000068H   BYTE   UNIT     XDATA          ?XD?EZMACPRO
000068H   000098H   000031H   BYTE   UNIT     XDATA          ?XD?P2P_DEMO_FWD_NODE
000099H   0000AEH   000016H   BYTE   UNIT     XDATA          ?XD?P2P_DEMO_FWD_MENU
0000AFH   0000AFH   000001H   BYTE   UNIT     XDATA          _XDATA_GROUP_

* * * * * * * * *   R E M O V E D     S E G M E N T S   * * * * * * * *
   *DEL*:           000038H   BYTE   UNIT     CODE           ?PR?EZMACPRO_SLEEP?EZMACPRO
   *DEL*:           000050H   BYTE   UNIT     CODE           ?PR?EZMACPRO_IDLE?EZMACPRO
   *DEL*:           00011FH   BYTE   UNIT     CODE           ?PR?EZMACPRO_TRANSMIT?EZMACPRO
   *DEL*:           000001H   BYTE   UNIT     DATA           ?DT?EZMACPRO_TRANSMIT?EZMACPRO
   *DEL*:           00007AH   BYTE   UNIT     CODE           ?PR?_EZMACPRO_REG_READ?EZMACPRO
   *DEL*:           000004H   BYTE   UNIT     DATA           ?DT?_EZMACPRO_REG_READ?EZMACPRO
   *DEL*:           000083H   BYTE   UNIT     CODE           ?PR?_EZMACPRO_TXBUF_WRITE?EZMACPRO
   *DEL*:           000004H   BYTE   UNIT     DATA           ?DT?_EZMACPRO_TXBUF_WRITE?EZMACPRO
   *DEL*:           000003H   BYTE   UNIT     CODE           ?PR?EZMACPRO_STATETXENTERED?P2P_DEMO_FWD_CALLBACKS
   *DEL*:           00000CH   BYTE   UNIT     CODE           ?PR?SPI0INIT?BSP
   *DEL*:           000039H   BYTE   UNIT     CODE           ?PR?_MACSPIWRITEFIFO?BSP
   *DEL*:           000029H   BYTE   UNIT     CODE           ?PR?_DELAY?BSP
   *DEL*:           000002H   BYTE   UNIT     DATA           ?DT?_DELAY?BSP
   *DEL*:           00000DH   BYTE   UNIT     CODE           ?PR?TIMER0INIT?BSP
   *DEL*:           000016H   BYTE   UNIT     CODE           ?PR?TIMER2INIT?BSP
   *DEL*:           000030H   BYTE   UNIT     CODE           ?PR?_TIMER0START?BSP
   *DEL*:           000004H   BYTE   UNIT     DATA           ?DT?_TIMER0START?BSP
   *DEL*:           000007H   BYTE   UNIT     CODE           ?PR?TIMER0STOP?BSP
   *DEL*:           000025H   BYTE   UNIT     CODE           ?PR?_TIMER2BUSYWAIT_MS?BSP
   *DEL*:           000002H   BYTE   UNIT     DATA           ?DT?_TIMER2BUSYWAIT_MS?BSP



OVERLAY MAP OF MODULE:   D:\01_project\20_안전모\02_source_EzMAC\EzMacPro(SI1000)\EZMacPRO reference C Code\application\
>> p2p_demo\fwd_node\p2p_demo_fwd_node_SI1000MB_KEIL.omf (EZMACPRO)


FUNCTION/MODULE                                BIT_GROUP   DATA_GROUP   XDATA_GROUP
--> CALLED FUNCTION/MODULE                    START  STOP  START  STOP  START  STOP
===================================================================================
EXTERNALINTISR/EZMACPRO_EXTERNALINT           ----- -----  0024H 0024H  ----- -----
  +--> ?PR?_EXTINTSPIREADREG?BSP
  +--> ?PR?_EXTINTWAKEUP?EZMACPRO_EXTERNALINT
  +--> ?PR?_EXTINTTX_STATEMACHINE?EZMACPRO_E...
  +--> ?PR?_EXTINTRX_STATEMACHINE?EZMACPRO_E...
  +--> ?PR?EXTINTDISABLEINTERRUPTS?EZMACPRO_...
  +--> ?PR?EZMACPRO_LFTIMEREXPIRED?P2P_DEMO_...
  +--> ?PR?EZMACPRO_LOWBATTERY?P2P_DEMO_FWD_...

_EXTINTSPIREADREG/BSP                         ----- -----  ----- -----  ----- -----

_EXTINTWAKEUP/EZMACPRO_EXTERNALINT            ----- -----  0025H 0025H  ----- -----
  +--> ?PR?EXTINTDISABLEINTERRUPTS?EZMACPRO_...
LX51 LINKER/LOCATER V3.64                                                             01/15/2014  19:23:23  PAGE 5


  +--> ?PR?EZMACPRO_STATEIDLEENTERED?P2P_DEM...
  +--> ?PR?_EXTINTSPIWRITEREG?BSP
  +--> ?PR?_EXTINTSETENABLE2?EZMACPRO_EXTERN...
  +--> ?PR?_EXTINTSETFUNCTION1?EZMACPRO_EXTE...
  +--> ?PR?_EXTINTTIMEOUT?BSP
  +--> ?PR?EZMACPRO_STATEERRORENTERED?P2P_DE...

EXTINTDISABLEINTERRUPTS/EZMACPRO_EXTE...      ----- -----  ----- -----  ----- -----
  +--> ?PR?_EXTINTSPIWRITEREG?BSP
  +--> ?PR?_EXTINTSETENABLE2?EZMACPRO_EXTERN...

_EXTINTSPIWRITEREG/BSP                        ----- -----  ----- -----  ----- -----

_EXTINTSETENABLE2/EZMACPRO_EXTERNALINT        ----- -----  ----- -----  ----- -----
  +--> ?PR?_EXTINTSPIWRITEREG?BSP

EZMACPRO_STATEIDLEENTERED/P2P_DEMO_FW...      ----- -----  ----- -----  ----- -----

_EXTINTSETFUNCTION1/EZMACPRO_EXTERNALINT      ----- -----  ----- -----  ----- -----
  +--> ?PR?_EXTINTSPIWRITEREG?BSP

_EXTINTTIMEOUT/BSP                            ----- -----  002BH 002EH  ----- -----

EZMACPRO_STATEERRORENTERED/P2P_DEMO_F...      ----- -----  ----- -----  ----- -----

_EXTINTTX_STATEMACHINE/EZMACPRO_EXTER...      ----- -----  0025H 0027H  ----- -----
  +--> ?PR?_EXTINTSPIWRITEREG?BSP
  +--> ?PR?_EXTINTSETFUNCTION1?EZMACPRO_EXTE...
  +--> ?PR?_EXTINTTIMEOUT?BSP
  +--> ?PR?_EXTINTSETENABLE2?EZMACPRO_EXTERN...
  +--> ?PR?EZMACPRO_PACKETSENT?P2P_DEMO_FWD_...
  +--> ?PR?_EXTINTSPIREADREG?BSP
  +--> ?PR?_EXTINTSPIREADFIFO?BSP
  +--> ?PR?_EXTINTINCREMENTERROR?EZMACPRO_EX...
  +--> ?PR?_EXTINTGOTONEXTSTATEUSINGSECR?EZM...

EZMACPRO_PACKETSENT/P2P_DEMO_FWD_CALL...      ----- -----  ----- -----  ----- -----

_EXTINTSPIREADFIFO/BSP                        ----- -----  ----- -----  ----- -----

_EXTINTINCREMENTERROR/EZMACPRO_EXTERN...      ----- -----  ----- -----  ----- -----

_EXTINTGOTONEXTSTATEUSINGSECR/EZMACPR...      ----- -----  0028H 002AH  ----- -----
  +--> ?PR?EXTINTDISABLEINTERRUPTS?EZMACPRO_...
  +--> ?PR?_EXTINTSETFUNCTION1?EZMACPRO_EXTE...
  +--> ?PR?EZMACPRO_STATESLEEPENTERED?P2P_DE...
  +--> ?PR?_EXTINTSPIREADREG?BSP
  +--> ?PR?_EXTINTSPIWRITEREG?BSP
  +--> ?PR?_EXTINTSETENABLE2?EZMACPRO_EXTERN...
  +--> ?PR?EXTINTNEXTRX_CHANNEL?EZMACPRO_EXT...
  +--> ?PR?_EXTINTTIMEOUT?BSP
  +--> ?PR?EZMACPRO_STATEIDLEENTERED?P2P_DEM...

EZMACPRO_STATESLEEPENTERED/P2P_DEMO_F...      ----- -----  ----- -----  ----- -----

EXTINTNEXTRX_CHANNEL/EZMACPRO_EXTERNA...      ----- -----  002BH 002BH  ----- -----
  +--> ?PR?_EXTINTSPIWRITEREG?BSP

_EXTINTRX_STATEMACHINE/EZMACPRO_EXTER...      ----- -----  0025H 0027H  ----- -----
  +--> ?PR?_EXTINTSETENABLE2?EZMACPRO_EXTERN...
  +--> ?PR?_EXTINTTIMEOUT?BSP
  +--> ?PR?_EXTINTSPIREADREG?BSP
  +--> ?PR?EZMACPRO_SYNCWORDRECEIVED?P2P_DEM...
  +--> ?PR?_EXTINTSPIWRITEREG?BSP
  +--> ?PR?EXTINTDISABLEINTERRUPTS?EZMACPRO_...
LX51 LINKER/LOCATER V3.64                                                             01/15/2014  19:23:23  PAGE 6


  +--> ?PR?_EXTINTSETFUNCTION1?EZMACPRO_EXTE...
  +--> ?PR?EXTINTNEXTRX_CHANNEL?EZMACPRO_EXT...
  +--> ?PR?_EXTINTSPIREADFIFO?BSP
  +--> ?PR?EXTINTHEADERERROR?EZMACPRO_EXTERN...
  +--> ?PR?EZMACPRO_ACKSENDING?P2P_DEMO_FWD_...
  +--> ?PR?EXTINTPACKETNEEDSFORWARDING?EZMAC...
  +--> ?PR?EZMACPRO_PACKETFORWARDING?P2P_DEM...
  +--> ?PR?_EXTINTSPIWRITEFIFO?BSP
  +--> ?PR?_EZMACPRO_PACKETRECEIVED?P2P_DEMO...
  +--> ?PR?_EXTINTINCREMENTERROR?EZMACPRO_EX...
  +--> ?PR?EZMACPRO_PACKETDISCARDED?P2P_DEMO...
  +--> ?PR?EZMACPRO_CRCERROR?P2P_DEMO_FWD_CA...
  +--> ?PR?_EXTINTGOTONEXTSTATEUSINGSECR?EZM...
  +--> ?PR?EZMACPRO_STATEERRORENTERED?P2P_DE...

EZMACPRO_SYNCWORDRECEIVED/P2P_DEMO_FW...      ----- -----  ----- -----  ----- -----

EXTINTHEADERERROR/EZMACPRO_EXTERNALINT        ----- -----  ----- -----  ----- -----
  +--> ?PR?_EXTINTSPIREADREG?BSP
  +--> ?PR?EXTINTBADADDRERROR?EZMACPRO_EXTER...
  +--> ?PR?_EXTINTINCREMENTERROR?EZMACPRO_EX...

EXTINTBADADDRERROR/EZMACPRO_EXTERNALINT       ----- -----  0028H 0029H  ----- -----
  +--> ?PR?_EXTINTSPIREADREG?BSP

EZMACPRO_ACKSENDING/P2P_DEMO_FWD_CALL...      ----- -----  ----- -----  00AFH 00AFH
  +--> ?PR?_EZMACPRO_ACK_WRITE?EZMACPRO

_EZMACPRO_ACK_WRITE/EZMACPRO                  ----- -----  0028H 002AH  ----- -----
  +--> ?PR?_MACSPIWRITEREG?BSP

_MACSPIWRITEREG/BSP                           ----- -----  ----- -----  ----- -----

EXTINTPACKETNEEDSFORWARDING/EZMACPRO_...      ----- -----  ----- -----  ----- -----

EZMACPRO_PACKETFORWARDING/P2P_DEMO_FW...      ----- -----  ----- -----  ----- -----

_EXTINTSPIWRITEFIFO/BSP                       ----- -----  ----- -----  ----- -----

_EZMACPRO_PACKETRECEIVED/P2P_DEMO_FWD...      ----- -----  0028H 0028H  ----- -----

EZMACPRO_PACKETDISCARDED/P2P_DEMO_FWD...      ----- -----  ----- -----  ----- -----

EZMACPRO_CRCERROR/P2P_DEMO_FWD_CALLBACKS      ----- -----  ----- -----  ----- -----

EZMACPRO_LFTIMEREXPIRED/P2P_DEMO_FWD_...      ----- -----  ----- -----  ----- -----

EZMACPRO_LOWBATTERY/P2P_DEMO_FWD_CALL...      ----- -----  ----- -----  ----- -----

*** NEW ROOT ********************************

TIMERINTT3_ISR/EZMACPRO_TIMERINT              ----- -----  002FH 002FH  ----- -----
  +--> ?PR?TIMERINTWAKEUP?EZMACPRO_TIMERINT
  +--> ?PR?_TIMERINTTX_STATEMACHINE?EZMACPRO...
  +--> ?PR?_TIMERINTRX_STATEMACHINE?EZMACPRO...

TIMERINTWAKEUP/EZMACPRO_TIMERINT              ----- -----  ----- -----  ----- -----
  +--> ?PR?EZMACPRO_STATEERRORENTERED?P2P_DE...

_TIMERINTTX_STATEMACHINE/EZMACPRO_TIM...      ----- -----  0030H 0033H  ----- -----
  +--> ?PR?TIMERINTRANDOM?EZMACPRO_TIMERINT
  +--> ?PR?_TIMERINTTIMEOUT?BSP
  +--> ?PR?_TIMERINTSETFUNCTION1?EZMACPRO_TI...
  +--> ?PR?_TIMERINTSETENABLE2?EZMACPRO_TIME...
  +--> ?PR?_TIMERINTSPIWRITEREG?BSP
LX51 LINKER/LOCATER V3.64                                                             01/15/2014  19:23:23  PAGE 7


  +--> ?PR?_TIMERINTINCREMENTERROR?EZMACPRO_...
  +--> ?PR?EZMACPRO_LBTTIMEOUT?P2P_DEMO_FWD_...
  +--> ?PR?EZMACPRO_STATEERRORENTERED?P2P_DE...
  +--> ?PR?_TIMERINTSPIREADREG?BSP
  +--> ?PR?EZMACPRO_ACKTIMEOUT?P2P_DEMO_FWD_...
  +--> ?PR?_TIMERINTGOTONEXTSTATEUSINGSECR?E...

TIMERINTRANDOM/EZMACPRO_TIMERINT              ----- -----  ----- -----  ----- -----

_TIMERINTTIMEOUT/BSP                          ----- -----  0037H 003AH  ----- -----

_TIMERINTSETFUNCTION1/EZMACPRO_TIMERINT       ----- -----  ----- -----  ----- -----
  +--> ?PR?_TIMERINTSPIWRITEREG?BSP

_TIMERINTSPIWRITEREG/BSP                      ----- -----  ----- -----  ----- -----

_TIMERINTSETENABLE2/EZMACPRO_TIMERINT         ----- -----  ----- -----  ----- -----
  +--> ?PR?_TIMERINTSPIWRITEREG?BSP

_TIMERINTINCREMENTERROR/EZMACPRO_TIME...      ----- -----  ----- -----  ----- -----

EZMACPRO_LBTTIMEOUT/P2P_DEMO_FWD_CALL...      ----- -----  ----- -----  ----- -----

_TIMERINTSPIREADREG/BSP                       ----- -----  ----- -----  ----- -----

EZMACPRO_ACKTIMEOUT/P2P_DEMO_FWD_CALL...      ----- -----  ----- -----  ----- -----

_TIMERINTGOTONEXTSTATEUSINGSECR/EZMAC...      ----- -----  0034H 0036H  ----- -----
  +--> ?PR?TIMERINTDISABLEINTERRUPTS?EZMACPR...
  +--> ?PR?_TIMERINTSETFUNCTION1?EZMACPRO_TI...
  +--> ?PR?EZMACPRO_STATESLEEPENTERED?P2P_DE...
  +--> ?PR?_TIMERINTSPIREADREG?BSP
  +--> ?PR?_TIMERINTSPIWRITEREG?BSP
  +--> ?PR?_TIMERINTSETENABLE2?EZMACPRO_TIME...
  +--> ?PR?TIMERINTNEXTRX_CHANNEL?EZMACPRO_T...
  +--> ?PR?_TIMERINTTIMEOUT?BSP
  +--> ?PR?EZMACPRO_STATEIDLEENTERED?P2P_DEM...

TIMERINTDISABLEINTERRUPTS/EZMACPRO_TI...      ----- -----  ----- -----  ----- -----
  +--> ?PR?_TIMERINTSPIWRITEREG?BSP
  +--> ?PR?_TIMERINTSETENABLE2?EZMACPRO_TIME...

TIMERINTNEXTRX_CHANNEL/EZMACPRO_TIMERINT      ----- -----  0037H 0037H  ----- -----
  +--> ?PR?_TIMERINTSETFUNCTION1?EZMACPRO_TI...
  +--> ?PR?_TIMERINTSPIWRITEREG?BSP

_TIMERINTRX_STATEMACHINE/EZMACPRO_TIM...      ----- -----  0030H 0033H  ----- -----
  +--> ?PR?TIMERINTNEXTRX_CHANNEL?EZMACPRO_T...
  +--> ?PR?_TIMERINTTIMEOUT?BSP
  +--> ?PR?_TIMERINTSPIREADREG?BSP
  +--> ?PR?_TIMERINTSPIWRITEREG?BSP
  +--> ?PR?_TIMERINTSETFUNCTION1?EZMACPRO_TI...
  +--> ?PR?_TIMERINTSETENABLE2?EZMACPRO_TIME...
  +--> ?PR?TIMERINTRANDOM?EZMACPRO_TIMERINT
  +--> ?PR?_TIMERINTINCREMENTERROR?EZMACPRO_...
  +--> ?PR?EZMACPRO_LBTTIMEOUT?P2P_DEMO_FWD_...
  +--> ?PR?EZMACPRO_STATEERRORENTERED?P2P_DE...

*** NEW ROOT ********************************

?C_C51STARTUP                                 ----- -----  ----- -----  ----- -----
  +--> ?PR?MAIN?MAIN
  +--> ?C_INITSEG

MAIN/MAIN                                     ----- -----  ----- -----  ----- -----
LX51 LINKER/LOCATER V3.64                                                             01/15/2014  19:23:23  PAGE 8


  +--> ?PR?STATEMACHINE_INIT?P2P_DEMO_FWD_NODE
  +--> ?PR?STATEMACHINE?P2P_DEMO_FWD_NODE

STATEMACHINE_INIT/P2P_DEMO_FWD_NODE           ----- -----  ----- -----  ----- -----

STATEMACHINE/P2P_DEMO_FWD_NODE                ----- -----  ----- -----  ----- -----
  +--> ?PR?BOARDINIT?BSP
  +--> ?PR?EZMACPRO_INIT?EZMACPRO
  +--> ?PR?VP2P_DEMO_FWDINIT?P2P_DEMO_FWD_NODE
  +--> ?PR?VP2P_DEMO_FWDPACKET?P2P_DEMO_FWD_...

BOARDINIT/BSP                                 ----- -----  ----- -----  ----- -----
  +--> ?PR?PORTINIT?BSP
  +--> ?PR?SYSTEMCLKINIT?BSP
  +--> ?PR?SPI1INIT?BSP
  +--> ?PR?TIMER3INIT?BSP
  +--> ?PR?INTERRUPTINIT?BSP
  +--> ?PR?LEDINIT?BSP
  +--> ?PR?UART0INIT?BSP

PORTINIT/BSP                                  ----- -----  ----- -----  ----- -----

SYSTEMCLKINIT/BSP                             ----- -----  ----- -----  ----- -----

SPI1INIT/BSP                                  ----- -----  ----- -----  ----- -----

TIMER3INIT/BSP                                ----- -----  ----- -----  ----- -----

INTERRUPTINIT/BSP                             ----- -----  ----- -----  ----- -----

LEDINIT/BSP                                   ----- -----  ----- -----  ----- -----

UART0INIT/BSP                                 ----- -----  ----- -----  ----- -----

EZMACPRO_INIT/EZMACPRO                        ----- -----  003BH 003CH  ----- -----
  +--> ?PR?_MACSPIREADREG?BSP
  +--> ?PR?_MACSPIWRITEREG?BSP
  +--> ?PR?EZMACPRO_STATEWAKEUPENTERED?P2P_D...
  +--> ?PR?_MACTIMEOUT?BSP
  +--> ?PR?_DELAY_MS?BSP
  +--> ?PR?_SETRFPARAMETERS?EZMACPRO
  +--> ?PR?INITFORWARDEDPACKETTABLE?EZMACPRO
  +--> ?PR?_MACSPECIALREGISTERSETTINGS?EZMACPRO
  +--> ?PR?EZMACPRO_STATESLEEPENTERED?P2P_DE...

_MACSPIREADREG/BSP                            ----- -----  ----- -----  ----- -----

EZMACPRO_STATEWAKEUPENTERED/P2P_DEMO_...      ----- -----  ----- -----  ----- -----

_MACTIMEOUT/BSP                               ----- -----  003DH 0044H  ----- -----

_DELAY_MS/BSP                                 ----- -----  003DH 0040H  ----- -----

_SETRFPARAMETERS/EZMACPRO                     ----- -----  003FH 0040H  ----- -----
  +--> ?CO?BSP
  +--> ?PR?_MACSPIWRITEREG?BSP
  +--> ?CO?EZMACPRO_CONST

?CO?BSP                                       ----- -----  ----- -----  ----- -----

?CO?EZMACPRO_CONST                            ----- -----  ----- -----  ----- -----

INITFORWARDEDPACKETTABLE/EZMACPRO             ----- -----  ----- -----  ----- -----

_MACSPECIALREGISTERSETTINGS/EZMACPRO          ----- -----  ----- -----  ----- -----
LX51 LINKER/LOCATER V3.64                                                             01/15/2014  19:23:23  PAGE 9


  +--> ?PR?_MACSPIWRITEREG?BSP

VP2P_DEMO_FWDINIT/P2P_DEMO_FWD_NODE           ----- -----  ----- -----  ----- -----
  +--> ?PR?_EZMACPRO_REG_WRITE?EZMACPRO
  +--> ?CO?P2P_DEMO_FWD_NODE
  +--> ?PR?EZMACPRO_WAKE_UP?EZMACPRO
  +--> ?PR?EZMACPRO_RECEIVE?EZMACPRO
  +--> ?PR?PRINTF?PRINTF

_EZMACPRO_REG_WRITE/EZMACPRO                  ----- -----  003BH 003EH  ----- -----
  +--> ?PR?_MACSPIWRITEREG?BSP
  +--> ?PR?_SETRFPARAMETERS?EZMACPRO
  +--> ?PR?_MACUPDATEDYNAMICTIMEOUTS?EZMACPRO
  +--> ?CO?EZMACPRO_CONST
  +--> ?PR?_MACUPDATELBTI?EZMACPRO
  +--> ?PR?_MACSPIREADREG?BSP

_MACUPDATEDYNAMICTIMEOUTS/EZMACPRO            ----- -----  003FH 0046H  ----- -----
  +--> ?CO?EZMACPRO_CONST

_MACUPDATELBTI/EZMACPRO                       ----- -----  003FH 003FH  ----- -----
  +--> ?CO?EZMACPRO_CONST

?CO?P2P_DEMO_FWD_NODE                         ----- -----  ----- -----  ----- -----

EZMACPRO_WAKE_UP/EZMACPRO                     ----- -----  003BH 003CH  ----- -----
  +--> ?PR?_MACSPIWRITEREG?BSP
  +--> ?PR?_MACSETENABLE2?EZMACPRO
  +--> ?PR?_MACSPIREADREG?BSP
  +--> ?PR?_MACSETFUNCTION1?EZMACPRO
  +--> ?PR?_MACTIMEOUT?BSP
  +--> ?PR?EZMACPRO_STATEWAKEUPENTERED?P2P_D...
  +--> ?PR?_DELAY_MS?BSP

_MACSETENABLE2/EZMACPRO                       ----- -----  ----- -----  ----- -----
  +--> ?PR?_MACSPIWRITEREG?BSP

_MACSETFUNCTION1/EZMACPRO                     ----- -----  ----- -----  ----- -----
  +--> ?PR?_MACSPIWRITEREG?BSP

EZMACPRO_RECEIVE/EZMACPRO                     ----- -----  003BH 003BH  ----- -----
  +--> ?PR?_MACSPIWRITEREG?BSP
  +--> ?PR?_MACSETENABLE2?EZMACPRO
  +--> ?PR?_MACSPIREADREG?BSP
  +--> ?PR?_MACSETFUNCTION1?EZMACPRO
  +--> ?PR?_MACTIMEOUT?BSP
  +--> ?PR?EZMACPRO_STATERXENTERED?P2P_DEMO_...

EZMACPRO_STATERXENTERED/P2P_DEMO_FWD_...      ----- -----  ----- -----  ----- -----

PRINTF/PRINTF                                 22H.1 23H.1  003BH 004EH  ----- -----
  +--> ?PR?PUTCHAR?PUTCHAR

PUTCHAR/PUTCHAR                               ----- -----  ----- -----  ----- -----

VP2P_DEMO_FWDPACKET/P2P_DEMO_FWD_NODE         ----- -----  ----- -----  ----- -----
  +--> ?PR?_EZMACPRO_RXBUF_READ?EZMACPRO
  +--> ?PR?_ATOI?ATOI
  +--> ?CO?P2P_DEMO_FWD_NODE
  +--> ?PR?PRINTF?PRINTF

_EZMACPRO_RXBUF_READ/EZMACPRO                 ----- -----  ----- -----  ----- -----

_ATOI/ATOI                                    22H.1 22H.1  003BH 003FH  ----- -----
  +--> ?PR?_ISSPACE?ISSPACE
LX51 LINKER/LOCATER V3.64                                                             01/15/2014  19:23:23  PAGE 10


  +--> ?PR?_ISDIGIT?ISDIGIT

_ISSPACE/ISSPACE                              ----- -----  ----- -----  ----- -----

_ISDIGIT/ISDIGIT                              ----- -----  ----- -----  ----- -----

?C_INITSEG                                    ----- -----  ----- -----  ----- -----



PUBLIC SYMBOLS OF MODULE:  D:\01_project\20_안전모\02_source_EzMAC\EzMacPro(SI1000)\EZMacPRO reference C Code\applicatio
>> n\p2p_demo\fwd_node\p2p_demo_fwd_node_SI1000MB_KEIL.omf (EZMACPRO)


      VALUE       CLASS    TYPE      PUBLIC SYMBOL NAME
      =================================================
      0000003BH   DATA     ---       ?_PRINTF517?BYTE
      0000003BH   DATA     ---       ?_PRINTF?BYTE
      0000003BH   DATA     ---       ?_SPRINTF517?BYTE
      0000003BH   DATA     ---       ?_SPRINTF?BYTE
      0100116CH   CODE     ---       ?C?CCASE
      0100112FH   CODE     ---       ?C?CLDOPTR
      01001116H   CODE     ---       ?C?CLDPTR
      00000000H   NUMBER   ---       ?C?CODESEG
      0100104AH   CODE     ---       ?C?COPY
      01001070H   CODE     ---       ?C?CSTPTR
      01001082H   CODE     ---       ?C?IMUL
      01001094H   CODE     ---       ?C?LMUL
      0100110AH   CODE     ---       ?C?OFFXADD
      0100115CH   CODE     ---       ?C?PLDIIDATA
      010010E3H   CODE     ---       ?C?SLCMP
      010010F9H   CODE     ---       ?C?ULCMP
      00000000H   NUMBER   ---       ?C?XDATASEG
      01001CAAH   CODE     ---       ?C_START
      01000000H   CODE     ---       ?C_STARTUP
      01001A57H   CODE     ---       _atoi
*DEL*:00000000H   CODE     ---       _Delay
      01002059H   CODE     ---       _delay_ms
      01001E12H   CODE     ---       _extIntGotoNextStateUsingSECR
      01002547H   CODE     ---       _extIntIncrementError
      01000076H   CODE     ---       _extIntRX_StateMachine
      01002604H   CODE     ---       _extIntSetEnable2
      010024DEH   CODE     ---       _extIntSetFunction1
      01002337H   CODE     ---       _extIntSpiReadFIFO
      0100259AH   CODE     ---       _extIntSpiReadReg
      01002395H   CODE     ---       _extIntSpiWriteFIFO
      0100257FH   CODE     ---       _extIntSpiWriteReg
      010023C3H   CODE     ---       _extIntTimeout
      0100151CH   CODE     ---       _extIntTX_StateMachine
      010021D3H   CODE     ---       _extIntWakeUp
      010017B5H   CODE     ---       _EZMacPRO_Ack_Write
      01002716H   CODE     ---       _EZMacPRO_PacketReceived
*DEL*:00000000H   CODE     ---       _EZMacPRO_Reg_Read
      0100086EH   CODE     ---       _EZMacPRO_Reg_Write
      01002304H   CODE     ---       _EZMacPRO_RxBuf_Read
*DEL*:00000000H   CODE     ---       _EZMacPRO_TxBuf_Write
      010026E9H   CODE     ---       _isdigit
      01002677H   CODE     ---       _isspace
      010025EBH   CODE     ---       _macSetEnable2
      01002525H   CODE     ---       _macSetFunction1
      010026ADH   CODE     ---       _macSpecialRegisterSettings
      010024B8H   CODE     ---       _macSpiReadReg
*DEL*:00000000H   CODE     ---       _macSpiWriteFIFO
      01002492H   CODE     ---       _macSpiWriteReg
      0100218EH   CODE     ---       _macTimeout
LX51 LINKER/LOCATER V3.64                                                             01/15/2014  19:23:23  PAGE 11


      01001192H   CODE     ---       _macUpdateDynamicTimeouts
      010020A8H   CODE     ---       _macUpdateLBTI
      01000574H   CODE     ---       _PRINTF
      01000574H   CODE     ---       _PRINTF517
      01002445H   CODE     ---       _PUTCHAR
      01000D5DH   CODE     ---       _SetRfParameters
      0100056EH   CODE     ---       _SPRINTF
      0100056EH   CODE     ---       _SPRINTF517
*DEL*:00000000H   CODE     ---       _Timer0Start
*DEL*:00000000H   CODE     ---       _Timer2BusyWait_ms
      01001F0AH   CODE     ---       _timerIntGotoNextStateUsingSECR
      01002563H   CODE     ---       _timerIntIncrementError
      01000B36H   CODE     ---       _timerIntRX_StateMachine
      0100261DH   CODE     ---       _timerIntSetEnable2
      01002421H   CODE     ---       _timerIntSetFunction1
      010025D0H   CODE     ---       _timerIntSpiReadReg
      010025B5H   CODE     ---       _timerIntSpiWriteReg
      010023EFH   CODE     ---       _timerIntTimeout
      01001376H   CODE     ---       _timerIntTX_StateMachine
      0200006CH   XDATA    ---       abRfPayload
      02000058H   XDATA    ---       AckBuffer
      00000067H   DATA     BYTE      AckBufSize
      01002662H   CODE     ---       BoardInit
      02000068H   XDATA    BYTE      bPacketLength
      00000053H   DATA     BYTE      BusyLBT
      00000012H   DATA     BYTE      ChannelOccupiedCounter
      00000011H   DATA     BYTE      ChannelOccupiedInStartPeriod
      02000069H   XDATA    BYTE      DEMO_SR
      01001CEFH   CODE     ---       externalIntISR
      01001D8BH   CODE     ---       extIntBadAddrError
      010026BCH   CODE     ---       extIntDisableInterrupts
      010020F6H   CODE     ---       extIntHeaderError
      010022CDH   CODE     ---       extIntNextRX_Channel
      01001BACH   CODE     ---       extIntPacketNeedsForwarding
      0100269CH   CODE     ---       EZMacPRO_AckSending
      0100273FH   CODE     ---       EZMacPRO_AckTimeout
      01002742H   CODE     ---       EZMacPRO_CRCError
*DEL*:00000000H   CODE     ---       EZMacPRO_Idle
      01001678H   CODE     ---       EZMacPRO_Init
      0100273CH   CODE     ---       EZMacPRO_LBTTimeout
      0100272AH   CODE     ---       EZMacPRO_LFTimerExpired
      0100272DH   CODE     ---       EZMacPRO_LowBattery
      01002733H   CODE     ---       EZMacPRO_PacketDiscarded
      01002736H   CODE     ---       EZMacPRO_PacketForwarding
      01002739H   CODE     ---       EZMacPRO_PacketSent
      010019A8H   CODE     ---       EZMacPRO_Receive
*DEL*:00000000H   CODE     ---       EZMacPRO_Sleep
      01002727H   CODE     ---       EZMacPRO_StateErrorEntered
      01002721H   CODE     ---       EZMacPRO_StateIdleEntered
      01002724H   CODE     ---       EZMacPRO_StateRxEntered
      0100271EH   CODE     ---       EZMacPRO_StateSleepEntered
*DEL*:00000000H   CODE     ---       EZMacPRO_StateTxEntered
      0100271BH   CODE     ---       EZMacPRO_StateWakeUpEntered
      01002730H   CODE     ---       EZMacPRO_SyncWordReceived
*DEL*:00000000H   CODE     ---       EZMacPRO_Transmit
      01001F86H   CODE     ---       EZMacPRO_Wake_Up
      01000064H   CODE     ---       EZMacProByteTime
      00000054H   DATA     BYTE      EZMacProCurrentChannel
      00000060H   DATA     BYTE      EZMacProLBT_Retrys
      00000061H   DATA     BYTE      EZMacProRandomNumber
      0000005FH   DATA     BYTE      EZMacProReceiveStatus
      00000070H   IDATA    ---       EZMacProReg
      00000066H   DATA     BYTE      EZMacProRSSIvalue
      00000055H   DATA     BYTE      EZMacProSequenceNumber
      0000000CH   DATA     WORD      EZMacProTimerMSB
LX51 LINKER/LOCATER V3.64                                                             01/15/2014  19:23:23  PAGE 12


      00000020H.7 BIT      BIT       fEZMacPRO_AckSending
      00000021H.7 BIT      BIT       fEZMacPRO_AckTimeout
      00000021H.2 BIT      BIT       fEZMacPRO_CRCError
      00000020H.5 BIT      BIT       fEZMacPRO_LBTTimeout
      00000021H.4 BIT      BIT       fEZMacPRO_LFTimerExpired
      00000020H.0 BIT      BIT       fEZMacPRO_LowBattery
      00000021H.1 BIT      BIT       fEZMacPRO_PacketDiscarded
      00000021H.5 BIT      BIT       fEZMacPRO_PacketForwarding
      00000022H.0 BIT      BIT       fEZMacPRO_PacketReceived
      00000021H.6 BIT      BIT       fEZMacPRO_PacketSent
      00000021H.0 BIT      BIT       fEZMacPRO_StateErrorEntered
      00000020H.6 BIT      BIT       fEZMacPRO_StateIdleEntered
      00000020H.1 BIT      BIT       fEZMacPRO_StateRxEntered
      00000020H.4 BIT      BIT       fEZMacPRO_StateSleepEntered
      00000020H.2 BIT      BIT       fEZMacPRO_StateTxEntered
      00000020H.3 BIT      BIT       fEZMacPRO_StateWakeUpEntered
      00000021H.3 BIT      BIT       fEZMacPRO_SyncWordReceived
      00000023H.2 BIT      BIT       fHeaderErrorOccurred
      02000040H   XDATA    ---       ForwardedPacketTable
      01000032H   CODE     ---       FrequencyTable
      01002293H   CODE     ---       initForwardedPacketTable
      0100006CH   CODE     ---       InterruptInit
      0000000FH   DATA     BYTE      intStatus1
      00000010H   DATA     BYTE      intStatus2
      02000099H   XDATA    ---       lcd_data
      01002745H   CODE     ---       LEDInit
      0100270EH   CODE     ---       main
      01000006H   CODE     ---       Parameters
      01002142H   CODE     ---       PortInit
      00000056H   DATA     BYTE      PreamRegValue
      02000071H   XDATA    ---       printBuf
      01002257H   CODE     ---       RfSettingsB1
      02000000H   XDATA    ---       RxBuffer
*DEL*:00000000H   CODE     ---       Spi0Init
      010026DAH   CODE     ---       Spi1Init
      01002367H   CODE     ---       StateMachine
      01002704H   CODE     ---       StateMachine_Init
      0100268AH   CODE     ---       SystemClkInit
      00000062H   DATA     DWORD     TimeoutACK
      0000004FH   DATA     DWORD     TimeoutChannelSearch
      00000057H   DATA     DWORD     TimeoutLBTI
      00000068H   DATA     DWORD     TimeoutRX_Packet
      0000005BH   DATA     DWORD     TimeoutSyncWord
      0000006CH   DATA     DWORD     TimeoutTX_Packet
*DEL*:00000000H   CODE     ---       Timer0Init
      00000008H   DATA     WORD      Timer0MSB
      0000000AH   DATA     WORD      Timer0MSB_save
*DEL*:00000000H   CODE     ---       Timer0Stop
*DEL*:00000000H   CODE     ---       Timer2Init
      0100264CH   CODE     ---       Timer3Init
      010026CBH   CODE     ---       timerIntDisableInterrupts
      01002216H   CODE     ---       timerIntNextRX_Channel
      01002636H   CODE     ---       timerIntRandom
      01001E8EH   CODE     ---       timerIntT3_ISR
      010026F8H   CODE     ---       timerIntWakeUp
      01002502H   CODE     ---       Uart0Init
      01001B05H   CODE     ---       vP2P_demo_FwdInit
      01001FF9H   CODE     ---       vP2P_demo_FwdPacket
      0200006AH   XDATA    WORD      wPacketCounter



SYMBOL TABLE OF MODULE:  D:\01_project\20_안전모\02_source_EzMAC\EzMacPro(SI1000)\EZMacPRO reference C Code\application\
>> p2p_demo\fwd_node\p2p_demo_fwd_node_SI1000MB_KEIL.omf (EZMACPRO)

LX51 LINKER/LOCATER V3.64                                                             01/15/2014  19:23:23  PAGE 13


      VALUE       REP       CLASS    TYPE      SYMBOL NAME
      ====================================================
      ---         MODULE    ---      ---       EZMACPRO
      02000058H   PUBLIC    XDATA    ---       ACKBUFFER
      02000040H   PUBLIC    XDATA    ---       FORWARDEDPACKETTABLE
      0000006CH   PUBLIC    DATA     DWORD     TIMEOUTTX_PACKET
      00000068H   PUBLIC    DATA     DWORD     TIMEOUTRX_PACKET
      00000067H   PUBLIC    DATA     BYTE      ACKBUFSIZE
      00000066H   PUBLIC    DATA     BYTE      EZMACPRORSSIVALUE
      00000062H   PUBLIC    DATA     DWORD     TIMEOUTACK
      00000061H   PUBLIC    DATA     BYTE      EZMACPRORANDOMNUMBER
      00000060H   PUBLIC    DATA     BYTE      EZMACPROLBT_RETRYS
      0000005FH   PUBLIC    DATA     BYTE      EZMACPRORECEIVESTATUS
      0000005BH   PUBLIC    DATA     DWORD     TIMEOUTSYNCWORD
      02000000H   PUBLIC    XDATA    ---       RXBUFFER
      00000057H   PUBLIC    DATA     DWORD     TIMEOUTLBTI
      00000056H   PUBLIC    DATA     BYTE      PREAMREGVALUE
      00000055H   PUBLIC    DATA     BYTE      EZMACPROSEQUENCENUMBER
      00000054H   PUBLIC    DATA     BYTE      EZMACPROCURRENTCHANNEL
      00000053H   PUBLIC    DATA     BYTE      BUSYLBT
      00000070H   PUBLIC    IDATA    ---       EZMACPROREG
      0000004FH   PUBLIC    DATA     DWORD     TIMEOUTCHANNELSEARCH
      00000023H.2 PUBLIC    BIT      BIT       FHEADERERROROCCURRED
      010020A8H   PUBLIC    CODE     ---       _MACUPDATELBTI
      01002525H   PUBLIC    CODE     ---       _MACSETFUNCTION1
      010025EBH   PUBLIC    CODE     ---       _MACSETENABLE2
      01002293H   PUBLIC    CODE     ---       INITFORWARDEDPACKETTABLE
      01001192H   PUBLIC    CODE     ---       _MACUPDATEDYNAMICTIMEOUTS
      010026ADH   PUBLIC    CODE     ---       _MACSPECIALREGISTERSETTINGS
      01000D5DH   PUBLIC    CODE     ---       _SETRFPARAMETERS
      010017B5H   PUBLIC    CODE     ---       _EZMACPRO_ACK_WRITE
      01002304H   PUBLIC    CODE     ---       _EZMACPRO_RXBUF_READ
      0100086EH   PUBLIC    CODE     ---       _EZMACPRO_REG_WRITE
      010019A8H   PUBLIC    CODE     ---       EZMACPRO_RECEIVE
      01001F86H   PUBLIC    CODE     ---       EZMACPRO_WAKE_UP
      01001678H   PUBLIC    CODE     ---       EZMACPRO_INIT
      00000000H   SYMBOL    CODE     WORD      _ICE_DUMMY_
      01001678H   BLOCK     ---      ---       LVL=1
      01001678H   BLOCK     ---      ---       LVL=2
      00000007H   SYMBOL    DATA     BYTE      temp8
      0000003BH   SYMBOL    DATA     WORD      timeout
      ---         BLOCKEND  ---      ---       LVL=1
      01001678H   LINE      CODE     ---       #90
      01001678H   LINE      CODE     ---       #91
      01001678H   LINE      CODE     ---       #94
      0100167DH   LINE      CODE     ---       #96
      0100167FH   LINE      CODE     ---       #97
      01001689H   LINE      CODE     ---       #98
      0100168DH   LINE      CODE     ---       #99
      01001690H   LINE      CODE     ---       #100
      01001693H   LINE      CODE     ---       #101
      01001696H   LINE      CODE     ---       #103
      0100169AH   LINE      CODE     ---       #104
      0100169DH   LINE      CODE     ---       #105
      010016A0H   LINE      CODE     ---       #111
      010016A4H   LINE      CODE     ---       #112
      010016A8H   LINE      CODE     ---       #113
      010016ABH   LINE      CODE     ---       #114
      010016AFH   LINE      CODE     ---       #115
      010016B2H   LINE      CODE     ---       #116
      010016B6H   LINE      CODE     ---       #118
      010016BAH   LINE      CODE     ---       #119
      010016BDH   LINE      CODE     ---       #121
      010016C1H   LINE      CODE     ---       #122
      010016C4H   LINE      CODE     ---       #125
LX51 LINKER/LOCATER V3.64                                                             01/15/2014  19:23:23  PAGE 14


      010016C9H   LINE      CODE     ---       #126
      010016CEH   LINE      CODE     ---       #127
      010016D0H   LINE      CODE     ---       #130
      010016D7H   LINE      CODE     ---       #131
      010016DEH   LINE      CODE     ---       #135
      010016E2H   LINE      CODE     ---       #137
      010016E5H   LINE      CODE     ---       #140
      010016ECH   LINE      CODE     ---       #143
      010016F7H   LINE      CODE     ---       #145
      010016FCH   LINE      CODE     ---       #149
      01001702H   LINE      CODE     ---       #150
      01001709H   LINE      CODE     ---       #151
      01001713H   LINE      CODE     ---       #152
      01001719H   LINE      CODE     ---       #153
      0100171BH   LINE      CODE     ---       #154
      0100171BH   LINE      CODE     ---       #155
      01001722H   LINE      CODE     ---       #156
      0100172AH   LINE      CODE     ---       #157
      0100172AH   LINE      CODE     ---       #158
      0100172CH   LINE      CODE     ---       #161
      01001733H   LINE      CODE     ---       #162
      0100173AH   LINE      CODE     ---       #167
      01001740H   LINE      CODE     ---       #169
      01001744H   LINE      CODE     ---       #172
      0100174BH   LINE      CODE     ---       #182
      01001752H   LINE      CODE     ---       #184
      01001759H   LINE      CODE     ---       #185
      01001760H   LINE      CODE     ---       #188
      01001767H   LINE      CODE     ---       #192
      0100176EH   LINE      CODE     ---       #193
      01001775H   LINE      CODE     ---       #194
      0100177CH   LINE      CODE     ---       #197
      01001783H   LINE      CODE     ---       #200
      0100178AH   LINE      CODE     ---       #203
      01001791H   LINE      CODE     ---       #206
      01001798H   LINE      CODE     ---       #209
      0100179BH   LINE      CODE     ---       #224
      0100179FH   LINE      CODE     ---       #227
      010017A4H   LINE      CODE     ---       #244
      010017ABH   LINE      CODE     ---       #247
      010017AFH   LINE      CODE     ---       #249
      010017B2H   LINE      CODE     ---       #259
      010017B4H   LINE      CODE     ---       #261
      ---         BLOCKEND  ---      ---       LVL=0
      00000000H   BLOCK     ---      ---       LVL=1
      ---         BLOCKEND  ---      ---       LVL=0
      01001F86H   BLOCK     ---      ---       LVL=1
      01001F86H   BLOCK     ---      ---       LVL=2
      0000003BH   SYMBOL    DATA     WORD      timeout
      ---         BLOCKEND  ---      ---       LVL=1
      01001F86H   LINE      CODE     ---       #305
      01001F86H   LINE      CODE     ---       #306
      01001F86H   LINE      CODE     ---       #308
      01001F8BH   LINE      CODE     ---       #309
      01001F8BH   LINE      CODE     ---       #310
      01001F90H   LINE      CODE     ---       #313
      01001F96H   LINE      CODE     ---       #315
      01001F9BH   LINE      CODE     ---       #318
      01001FA0H   LINE      CODE     ---       #319
      01001FA5H   LINE      CODE     ---       #320
      01001FA7H   LINE      CODE     ---       #323
      01001FACH   LINE      CODE     ---       #325
      01001FB7H   LINE      CODE     ---       #327
      01001FBBH   LINE      CODE     ---       #329
      01001FBEH   LINE      CODE     ---       #331
LX51 LINKER/LOCATER V3.64                                                             01/15/2014  19:23:23  PAGE 15


      01001FC3H   LINE      CODE     ---       #334
      01001FC9H   LINE      CODE     ---       #335
      01001FD0H   LINE      CODE     ---       #336
      01001FDAH   LINE      CODE     ---       #337
      01001FE0H   LINE      CODE     ---       #338
      01001FE2H   LINE      CODE     ---       #339
      01001FE2H   LINE      CODE     ---       #340
      01001FE9H   LINE      CODE     ---       #341
      01001FF1H   LINE      CODE     ---       #342
      01001FF1H   LINE      CODE     ---       #343
      01001FF3H   LINE      CODE     ---       #345
      01001FF6H   LINE      CODE     ---       #346
      01001FF6H   LINE      CODE     ---       #348
      01001FF8H   LINE      CODE     ---       #349
      ---         BLOCKEND  ---      ---       LVL=0
      00000000H   BLOCK     ---      ---       LVL=1
      ---         BLOCKEND  ---      ---       LVL=0
      00000000H   BLOCK     ---      ---       LVL=1
      00000000H   BLOCK     ---      ---       LVL=2
      ---         BLOCKEND  ---      ---       LVL=1
      ---         BLOCKEND  ---      ---       LVL=0
      010019A8H   BLOCK     ---      ---       LVL=1
      010019A8H   BLOCK     ---      ---       LVL=2
      0000003BH   SYMBOL    DATA     BYTE      temp8
      ---         BLOCKEND  ---      ---       LVL=1
      010019A8H   LINE      CODE     ---       #582
      010019A8H   LINE      CODE     ---       #583
      010019A8H   LINE      CODE     ---       #586
      010019AFH   LINE      CODE     ---       #587
      010019B2H   LINE      CODE     ---       #589
      010019B2H   LINE      CODE     ---       #590
      010019B7H   LINE      CODE     ---       #603
      010019BDH   LINE      CODE     ---       #604
      010019BDH   LINE      CODE     ---       #606
      010019C2H   LINE      CODE     ---       #607
      010019CAH   LINE      CODE     ---       #608
      010019D6H   LINE      CODE     ---       #609
      010019D9H   LINE      CODE     ---       #610
      010019DBH   LINE      CODE     ---       #613
      010019DBH   LINE      CODE     ---       #615
      010019E4H   LINE      CODE     ---       #616
      010019EEH   LINE      CODE     ---       #617
      010019F8H   LINE      CODE     ---       #618
      01001A07H   LINE      CODE     ---       #619
      01001A07H   LINE      CODE     ---       #623
      01001A0EH   LINE      CODE     ---       #626
      01001A13H   LINE      CODE     ---       #634
      01001A18H   LINE      CODE     ---       #635
      01001A1DH   LINE      CODE     ---       #638
      01001A24H   LINE      CODE     ---       #639
      01001A27H   LINE      CODE     ---       #640
      01001A2EH   LINE      CODE     ---       #641
      01001A31H   LINE      CODE     ---       #642
      01001A38H   LINE      CODE     ---       #645
      01001A3DH   LINE      CODE     ---       #647
      01001A48H   LINE      CODE     ---       #649
      01001A4CH   LINE      CODE     ---       #651
      01001A4FH   LINE      CODE     ---       #652
      01001A54H   LINE      CODE     ---       #654
      01001A56H   LINE      CODE     ---       #656
      01001A56H   LINE      CODE     ---       #657
      ---         BLOCKEND  ---      ---       LVL=0
      0100086EH   BLOCK     ---      ---       LVL=1
      0000003BH   SYMBOL    DATA     BYTE      name
      0000003CH   SYMBOL    DATA     BYTE      value
LX51 LINKER/LOCATER V3.64                                                             01/15/2014  19:23:23  PAGE 16


      01000872H   BLOCK     ---      ---       LVL=2
      0000003DH   SYMBOL    DATA     BYTE      temp8
      0000003EH   SYMBOL    DATA     BYTE      temp8_2
      ---         BLOCKEND  ---      ---       LVL=1
      0100086EH   LINE      CODE     ---       #680
      01000872H   LINE      CODE     ---       #681
      01000872H   LINE      CODE     ---       #686
      01000879H   LINE      CODE     ---       #687
      0100087CH   LINE      CODE     ---       #690
      01000883H   LINE      CODE     ---       #691
      01000886H   LINE      CODE     ---       #693
      01000906H   LINE      CODE     ---       #694
      01000906H   LINE      CODE     ---       #697
      01000906H   LINE      CODE     ---       #700
      0100090BH   LINE      CODE     ---       #702
      0100090FH   LINE      CODE     ---       #705
      01000916H   LINE      CODE     ---       #716
      0100091BH   LINE      CODE     ---       #717
      01000924H   LINE      CODE     ---       #721
      0100092EH   LINE      CODE     ---       #722
      01000945H   LINE      CODE     ---       #723
      01000945H   LINE      CODE     ---       #724
      01000945H   LINE      CODE     ---       #725
      01000947H   LINE      CODE     ---       #726
      01000947H   LINE      CODE     ---       #727
      0100094EH   LINE      CODE     ---       #728
      0100094EH   LINE      CODE     ---       #729
      0100094EH   LINE      CODE     ---       #730
      01000950H   LINE      CODE     ---       #731
      01000950H   LINE      CODE     ---       #732
      01000969H   LINE      CODE     ---       #733
      01000969H   LINE      CODE     ---       #734
      01000969H   LINE      CODE     ---       #735
      0100096BH   LINE      CODE     ---       #736
      0100096BH   LINE      CODE     ---       #738
      01000972H   LINE      CODE     ---       #739
      01000972H   LINE      CODE     ---       #740
      01000974H   LINE      CODE     ---       #741
      01000977H   LINE      CODE     ---       #742
      01000977H   LINE      CODE     ---       #745
      0100097EH   LINE      CODE     ---       #748
      01000986H   LINE      CODE     ---       #749
      01000986H   LINE      CODE     ---       #750
      0100098DH   LINE      CODE     ---       #751
      01000994H   LINE      CODE     ---       #752
      01000994H   LINE      CODE     ---       #754
      01000997H   LINE      CODE     ---       #755
      01000997H   LINE      CODE     ---       #756
      01000997H   LINE      CODE     ---       #757
      01000997H   LINE      CODE     ---       #759
      0100099EH   LINE      CODE     ---       #769
      010009A3H   LINE      CODE     ---       #771
      010009A6H   LINE      CODE     ---       #772
      010009A6H   LINE      CODE     ---       #773
      010009A6H   LINE      CODE     ---       #775
      010009B1H   LINE      CODE     ---       #776
      010009B4H   LINE      CODE     ---       #777
      010009B4H   LINE      CODE     ---       #778
      010009B4H   LINE      CODE     ---       #780
      010009B4H   LINE      CODE     ---       #782
      010009B4H   LINE      CODE     ---       #784
      010009B4H   LINE      CODE     ---       #789
      010009BDH   LINE      CODE     ---       #791
      010009D6H   LINE      CODE     ---       #792
      010009D9H   LINE      CODE     ---       #793
LX51 LINKER/LOCATER V3.64                                                             01/15/2014  19:23:23  PAGE 17


      010009D9H   LINE      CODE     ---       #890
      010009D9H   LINE      CODE     ---       #892
      010009E3H   LINE      CODE     ---       #893
      010009E6H   LINE      CODE     ---       #900
      010009E6H   LINE      CODE     ---       #902
      010009E6H   LINE      CODE     ---       #903
      010009E6H   LINE      CODE     ---       #904
      010009E6H   LINE      CODE     ---       #905
      010009E6H   LINE      CODE     ---       #906
      010009E6H   LINE      CODE     ---       #907
      010009E6H   LINE      CODE     ---       #908
      010009E6H   LINE      CODE     ---       #909
      010009E6H   LINE      CODE     ---       #911
      010009E6H   LINE      CODE     ---       #912
      010009E6H   LINE      CODE     ---       #913
      010009E6H   LINE      CODE     ---       #914
      010009E6H   LINE      CODE     ---       #915
      010009E6H   LINE      CODE     ---       #916
      010009E6H   LINE      CODE     ---       #917
      010009E6H   LINE      CODE     ---       #918
      010009E6H   LINE      CODE     ---       #919
      010009E6H   LINE      CODE     ---       #920
      010009EDH   LINE      CODE     ---       #921
      010009F0H   LINE      CODE     ---       #923
      010009F9H   LINE      CODE     ---       #924
      010009FCH   LINE      CODE     ---       #925
      010009FCH   LINE      CODE     ---       #928
      010009FCH   LINE      CODE     ---       #929
      010009FCH   LINE      CODE     ---       #932
      010009FCH   LINE      CODE     ---       #933
      010009FCH   LINE      CODE     ---       #936
      010009FCH   LINE      CODE     ---       #938
      010009FCH   LINE      CODE     ---       #941
      010009FCH   LINE      CODE     ---       #942
      010009FCH   LINE      CODE     ---       #943
      01000A02H   LINE      CODE     ---       #945
      01000A09H   LINE      CODE     ---       #947
      01000A0CH   LINE      CODE     ---       #948
      01000A0CH   LINE      CODE     ---       #949
      01000A0CH   LINE      CODE     ---       #950
      01000A11H   LINE      CODE     ---       #951
      01000A14H   LINE      CODE     ---       #952
      01000A1CH   LINE      CODE     ---       #954
      01000A21H   LINE      CODE     ---       #957
      01000A23H   LINE      CODE     ---       #958
      01000A26H   LINE      CODE     ---       #959
      01000A26H   LINE      CODE     ---       #962
      01000A26H   LINE      CODE     ---       #963
      01000A26H   LINE      CODE     ---       #966
      01000A26H   LINE      CODE     ---       #967
      01000A26H   LINE      CODE     ---       #969
      01000A29H   LINE      CODE     ---       #970
      01000A29H   LINE      CODE     ---       #971
      01000A29H   LINE      CODE     ---       #972
      01000A31H   LINE      CODE     ---       #974
      01000A36H   LINE      CODE     ---       #977
      01000A38H   LINE      CODE     ---       #978
      01000A3BH   LINE      CODE     ---       #979
      01000A3BH   LINE      CODE     ---       #981
      01000A42H   LINE      CODE     ---       #982
      01000A45H   LINE      CODE     ---       #984
      01000A45H   LINE      CODE     ---       #985
      01000A49H   LINE      CODE     ---       #986
      01000A49H   LINE      CODE     ---       #987
      01000A4CH   LINE      CODE     ---       #991
LX51 LINKER/LOCATER V3.64                                                             01/15/2014  19:23:23  PAGE 18


      01000A4CH   LINE      CODE     ---       #992
      01000A51H   LINE      CODE     ---       #993
      01000A54H   LINE      CODE     ---       #994
      01000A54H   LINE      CODE     ---       #995
      01000A54H   LINE      CODE     ---       #997
      01000A54H   LINE      CODE     ---       #999
      01000A58H   LINE      CODE     ---       #1000
      01000A5BH   LINE      CODE     ---       #1001
      01000A5BH   LINE      CODE     ---       #1003
      01000A5FH   LINE      CODE     ---       #1004
      01000A62H   LINE      CODE     ---       #1005
      01000A62H   LINE      CODE     ---       #1007
      01000A6CH   LINE      CODE     ---       #1008
      01000A73H   LINE      CODE     ---       #1009
      01000A7CH   LINE      CODE     ---       #1010
      01000A81H   LINE      CODE     ---       #1011
      01000A81H   LINE      CODE     ---       #1012
      01000A84H   LINE      CODE     ---       #1013
      01000A87H   LINE      CODE     ---       #1014
      01000A89H   LINE      CODE     ---       #1016
      01000A89H   LINE      CODE     ---       #1017
      01000A8CH   LINE      CODE     ---       #1018
      01000A8FH   LINE      CODE     ---       #1019
      01000A8FH   LINE      CODE     ---       #1020
      01000A96H   LINE      CODE     ---       #1021
      01000A9DH   LINE      CODE     ---       #1023
      01000AA4H   LINE      CODE     ---       #1024
      01000AA9H   LINE      CODE     ---       #1025
      01000AA9H   LINE      CODE     ---       #1026
      01000AACH   LINE      CODE     ---       #1027
      01000AAEH   LINE      CODE     ---       #1029
      01000AAEH   LINE      CODE     ---       #1030
      01000AB1H   LINE      CODE     ---       #1031
      01000AB1H   LINE      CODE     ---       #1032
      01000AB8H   LINE      CODE     ---       #1033
      01000ABAH   LINE      CODE     ---       #1034
      01000ABCH   LINE      CODE     ---       #1035
      01000ABCH   LINE      CODE     ---       #1036
      01000AC1H   LINE      CODE     ---       #1037
      01000AC1H   LINE      CODE     ---       #1038
      01000AC5H   LINE      CODE     ---       #1039
      01000ACBH   LINE      CODE     ---       #1041
      01000AD2H   LINE      CODE     ---       #1042
      01000ADCH   LINE      CODE     ---       #1044
      01000AE3H   LINE      CODE     ---       #1045
      01000AE7H   LINE      CODE     ---       #1046
      01000AE9H   LINE      CODE     ---       #1048
      01000AE9H   LINE      CODE     ---       #1049
      01000AF0H   LINE      CODE     ---       #1050
      01000AFAH   LINE      CODE     ---       #1052
      01000B01H   LINE      CODE     ---       #1053
      01000B08H   LINE      CODE     ---       #1054
      01000B08H   LINE      CODE     ---       #1055
      01000B0AH   LINE      CODE     ---       #1056
      01000B0AH   LINE      CODE     ---       #1058
      01000B14H   LINE      CODE     ---       #1061
      01000B1BH   LINE      CODE     ---       #1063
      01000B2CH   LINE      CODE     ---       #1064
      01000B2CH   LINE      CODE     ---       #1066
      01000B2CH   LINE      CODE     ---       #1068
      01000B2CH   LINE      CODE     ---       #1069
      01000B2CH   LINE      CODE     ---       #1075
      01000B2CH   LINE      CODE     ---       #1077
      01000B2CH   LINE      CODE     ---       #1079
      01000B33H   LINE      CODE     ---       #1080
LX51 LINKER/LOCATER V3.64                                                             01/15/2014  19:23:23  PAGE 19


      01000B35H   LINE      CODE     ---       #1082
      ---         BLOCKEND  ---      ---       LVL=0
      00000000H   BLOCK     ---      ---       LVL=1
      ---         BLOCKEND  ---      ---       LVL=0
      00000000H   BLOCK     ---      ---       LVL=1
      00000006H   BLOCK     ---      ---       LVL=2
      ---         BLOCKEND  ---      ---       LVL=1
      ---         BLOCKEND  ---      ---       LVL=0
      01002304H   BLOCK     ---      ---       LVL=1
      00000082H   SYMBOL    DATA     ---       length
      00000004H   SYMBOL    DATA     ---       payload
      01002308H   BLOCK     ---      ---       LVL=2
      00000007H   SYMBOL    DATA     BYTE      temp8
      ---         BLOCKEND  ---      ---       LVL=1
      01002304H   LINE      CODE     ---       #1234
      01002308H   LINE      CODE     ---       #1235
      01002308H   LINE      CODE     ---       #1236
      0100230AH   LINE      CODE     ---       #1238
      0100230EH   LINE      CODE     ---       #1240
      01002317H   LINE      CODE     ---       #1241
      01002317H   LINE      CODE     ---       #1242
      01002331H   LINE      CODE     ---       #1243
      01002332H   LINE      CODE     ---       #1244
      01002334H   LINE      CODE     ---       #1245
      01002336H   LINE      CODE     ---       #1246
      ---         BLOCKEND  ---      ---       LVL=0
      010017B5H   BLOCK     ---      ---       LVL=1
      00000028H   SYMBOL    DATA     BYTE      length
      00000029H   SYMBOL    DATA     ---       payload
      010017BBH   BLOCK     ---      ---       LVL=2
      00000007H   SYMBOL    DATA     BYTE      temp8
      ---         BLOCKEND  ---      ---       LVL=1
      010017B5H   LINE      CODE     ---       #1270
      010017BBH   LINE      CODE     ---       #1271
      010017BBH   LINE      CODE     ---       #1272
      010017BBH   LINE      CODE     ---       #1275
      010017C1H   LINE      CODE     ---       #1276
      010017C4H   LINE      CODE     ---       #1279
      010017CBH   LINE      CODE     ---       #1280
      010017CEH   LINE      CODE     ---       #1283
      010017D4H   LINE      CODE     ---       #1284
      010017D4H   LINE      CODE     ---       #1286
      010017DBH   LINE      CODE     ---       #1289
      010017E6H   LINE      CODE     ---       #1290
      01001801H   LINE      CODE     ---       #1291
      01001801H   LINE      CODE     ---       #1293
      01001801H   LINE      CODE     ---       #1295
      01001809H   LINE      CODE     ---       #1296
      01001809H   LINE      CODE     ---       #1298
      01001811H   LINE      CODE     ---       #1299
      0100182CH   LINE      CODE     ---       #1301
      01001834H   LINE      CODE     ---       #1302
      01001843H   LINE      CODE     ---       #1303
      01001843H   LINE      CODE     ---       #1305
      01001843H   LINE      CODE     ---       #1307
      0100184BH   LINE      CODE     ---       #1308
      0100184BH   LINE      CODE     ---       #1310
      01001853H   LINE      CODE     ---       #1311
      0100186EH   LINE      CODE     ---       #1313
      01001879H   LINE      CODE     ---       #1314
      01001888H   LINE      CODE     ---       #1315
      01001888H   LINE      CODE     ---       #1317
      01001888H   LINE      CODE     ---       #1319
      01001893H   LINE      CODE     ---       #1320
      010018AEH   LINE      CODE     ---       #1321
LX51 LINKER/LOCATER V3.64                                                             01/15/2014  19:23:23  PAGE 20


      010018AEH   LINE      CODE     ---       #1322
      010018AEH   LINE      CODE     ---       #1323
      010018AEH   LINE      CODE     ---       #1324
      010018B0H   LINE      CODE     ---       #1325
      ---         BLOCKEND  ---      ---       LVL=0
      01000D5DH   BLOCK     ---      ---       LVL=1
      00000007H   SYMBOL    DATA     BYTE      mcr
      01000D5DH   BLOCK     ---      ---       LVL=2
      0000003FH   SYMBOL    DATA     BYTE      dataRate
      00000040H   SYMBOL    DATA     BYTE      numFreq
      ---         BLOCKEND  ---      ---       LVL=1
      01000D5DH   LINE      CODE     ---       #1343
      01000D5DH   LINE      CODE     ---       #1344
      01000D5DH   LINE      CODE     ---       #1350
      01000D64H   LINE      CODE     ---       #1351
      01000D69H   LINE      CODE     ---       #1415
      01000D80H   LINE      CODE     ---       #1416
      01000D97H   LINE      CODE     ---       #1417
      01000DAEH   LINE      CODE     ---       #1418
      01000DC5H   LINE      CODE     ---       #1419
      01000DDCH   LINE      CODE     ---       #1420
      01000DF3H   LINE      CODE     ---       #1421
      01000E0AH   LINE      CODE     ---       #1422
      01000E21H   LINE      CODE     ---       #1423
      01000E38H   LINE      CODE     ---       #1424
      01000E4FH   LINE      CODE     ---       #1425
      01000E66H   LINE      CODE     ---       #1426
      01000E7DH   LINE      CODE     ---       #1427
      01000E94H   LINE      CODE     ---       #1428
      01000EABH   LINE      CODE     ---       #1429
      01000EC9H   LINE      CODE     ---       #1432
      01000EE0H   LINE      CODE     ---       #1433
      01000EF7H   LINE      CODE     ---       #1434
      01000F0EH   LINE      CODE     ---       #1435
      01000F25H   LINE      CODE     ---       #1443
      01000F29H   LINE      CODE     ---       #1444
      01000F29H   LINE      CODE     ---       #1446
      01000F36H   LINE      CODE     ---       #1447
      01000F38H   LINE      CODE     ---       #1448
      01000F3DH   LINE      CODE     ---       #1449
      01000F3DH   LINE      CODE     ---       #1451
      01000F4AH   LINE      CODE     ---       #1452
      01000F4CH   LINE      CODE     ---       #1453
      01000F51H   LINE      CODE     ---       #1454
      01000F51H   LINE      CODE     ---       #1456
      01000F5EH   LINE      CODE     ---       #1457
      01000F60H   LINE      CODE     ---       #1459
      01000F60H   LINE      CODE     ---       #1461
      01000F79H   LINE      CODE     ---       #1462
      01000F79H   LINE      CODE     ---       #1471
      ---         BLOCKEND  ---      ---       LVL=0
      010026ADH   BLOCK     ---      ---       LVL=1
      00000007H   SYMBOL    DATA     BYTE      chiptype
      010026ADH   LINE      CODE     ---       #1481
      010026ADH   LINE      CODE     ---       #1482
      010026ADH   LINE      CODE     ---       #1484
      010026ADH   LINE      CODE     ---       #1485
      010026ADH   LINE      CODE     ---       #1512
      010026ADH   LINE      CODE     ---       #1513
      010026ADH   LINE      CODE     ---       #1515
      010026B4H   LINE      CODE     ---       #1517
      010026BBH   LINE      CODE     ---       #1518
      010026BBH   LINE      CODE     ---       #1519
      010026BBH   LINE      CODE     ---       #1520
      ---         BLOCKEND  ---      ---       LVL=0
LX51 LINKER/LOCATER V3.64                                                             01/15/2014  19:23:23  PAGE 21


      01001192H   BLOCK     ---      ---       LVL=1
      0000003FH   SYMBOL    DATA     BYTE      mcr
      00000040H   SYMBOL    DATA     BYTE      mpl
      01001196H   BLOCK     ---      ---       LVL=2
      00000041H   SYMBOL    DATA     WORD      n
      00000043H   SYMBOL    DATA     BYTE      preamble
      00000044H   SYMBOL    DATA     CHAR      header
      00000045H   SYMBOL    DATA     WORD      byteTime
      ---         BLOCKEND  ---      ---       LVL=1
      01001192H   LINE      CODE     ---       #1529
      01001196H   LINE      CODE     ---       #1530
      01001196H   LINE      CODE     ---       #1537
      010011A3H   LINE      CODE     ---       #1538
      010011BDH   LINE      CODE     ---       #1542
      010011DDH   LINE      CODE     ---       #1560
      010011E2H   LINE      CODE     ---       #1561
      010011E2H   LINE      CODE     ---       #1562
      010011E5H   LINE      CODE     ---       #1563
      010011E7H   LINE      CODE     ---       #1565
      010011E7H   LINE      CODE     ---       #1566
      010011EAH   LINE      CODE     ---       #1567
      010011EAH   LINE      CODE     ---       #1571
      010011EFH   LINE      CODE     ---       #1572
      010011EFH   LINE      CODE     ---       #1573
      010011F1H   LINE      CODE     ---       #1574
      010011F1H   LINE      CODE     ---       #1578
      01001212H   LINE      CODE     ---       #1581
      0100123CH   LINE      CODE     ---       #1588
      0100124CH   LINE      CODE     ---       #1589
      01001268H   LINE      CODE     ---       #1593
      01001281H   LINE      CODE     ---       #1594
      0100129CH   LINE      CODE     ---       #1599
      010012A1H   LINE      CODE     ---       #1600
      010012A1H   LINE      CODE     ---       #1604
      010012A4H   LINE      CODE     ---       #1605
      010012A4H   LINE      CODE     ---       #1607
      010012BDH   LINE      CODE     ---       #1609
      010012D8H   LINE      CODE     ---       #1610
      010012EEH   LINE      CODE     ---       #1614
      010012FCH   LINE      CODE     ---       #1616
      01001300H   LINE      CODE     ---       #1617
      01001300H   LINE      CODE     ---       #1618
      01001375H   LINE      CODE     ---       #1619
      01001375H   LINE      CODE     ---       #1623
      ---         BLOCKEND  ---      ---       LVL=0
      01002293H   BLOCK     ---      ---       LVL=1
      01002293H   BLOCK     ---      ---       LVL=2
      00000007H   SYMBOL    DATA     BYTE      i
      ---         BLOCKEND  ---      ---       LVL=1
      01002293H   LINE      CODE     ---       #1631
      01002293H   LINE      CODE     ---       #1632
      01002293H   LINE      CODE     ---       #1634
      01002295H   LINE      CODE     ---       #1635
      01002295H   LINE      CODE     ---       #1636
      010022A6H   LINE      CODE     ---       #1637
      010022B7H   LINE      CODE     ---       #1638
      010022C8H   LINE      CODE     ---       #1639
      010022CCH   LINE      CODE     ---       #1640
      ---         BLOCKEND  ---      ---       LVL=0
      010025EBH   BLOCK     ---      ---       LVL=1
      00000005H   SYMBOL    DATA     BYTE      value
      010025EBH   LINE      CODE     ---       #1649
      010025EDH   LINE      CODE     ---       #1650
      010025EDH   LINE      CODE     ---       #1652
      010025F3H   LINE      CODE     ---       #1653
LX51 LINKER/LOCATER V3.64                                                             01/15/2014  19:23:23  PAGE 22


      010025F6H   LINE      CODE     ---       #1655
      010025FCH   LINE      CODE     ---       #1656
      010025FFH   LINE      CODE     ---       #1658
      ---         BLOCKEND  ---      ---       LVL=0
      01002525H   BLOCK     ---      ---       LVL=1
      00000005H   SYMBOL    DATA     BYTE      value
      01002525H   LINE      CODE     ---       #1667
      01002527H   LINE      CODE     ---       #1668
      01002527H   LINE      CODE     ---       #1670
      0100252DH   LINE      CODE     ---       #1671
      01002530H   LINE      CODE     ---       #1673
      01002536H   LINE      CODE     ---       #1674
      01002539H   LINE      CODE     ---       #1676
      0100253FH   LINE      CODE     ---       #1677
      01002542H   LINE      CODE     ---       #1679
      ---         BLOCKEND  ---      ---       LVL=0
      010020A8H   BLOCK     ---      ---       LVL=1
      0000003FH   SYMBOL    DATA     BYTE      lbti
      010020AAH   BLOCK     ---      ---       LVL=2
      00000007H   SYMBOL    DATA     BYTE      rate
      ---         BLOCKEND  ---      ---       LVL=1
      010020A8H   LINE      CODE     ---       #1691
      010020AAH   LINE      CODE     ---       #1692
      010020AAH   LINE      CODE     ---       #1696
      010020AFH   LINE      CODE     ---       #1697
      010020AFH   LINE      CODE     ---       #1699
      010020B5H   LINE      CODE     ---       #1700
      010020B7H   LINE      CODE     ---       #1702
      010020B7H   LINE      CODE     ---       #1704
      010020BEH   LINE      CODE     ---       #1706
      010020D9H   LINE      CODE     ---       #1707
      010020D9H   LINE      CODE     ---       #1710
      010020F5H   LINE      CODE     ---       #1711
      ---         BLOCKEND  ---      ---       LVL=0

      ---         MODULE    ---      ---       EZMACPRO_CONST
      01000064H   PUBLIC    CODE     ---       EZMACPROBYTETIME
      01000032H   PUBLIC    CODE     ---       FREQUENCYTABLE
      01000006H   PUBLIC    CODE     ---       PARAMETERS
      00000000H   SYMBOL    CODE     WORD      _ICE_DUMMY_

      ---         MODULE    ---      ---       EZMACPRO_EXTERNALINT
      00000010H   PUBLIC    DATA     BYTE      INTSTATUS2
      0000000FH   PUBLIC    DATA     BYTE      INTSTATUS1
      01001D8BH   PUBLIC    CODE     ---       EXTINTBADADDRERROR
      010020F6H   PUBLIC    CODE     ---       EXTINTHEADERERROR
      010024DEH   PUBLIC    CODE     ---       _EXTINTSETFUNCTION1
      01002604H   PUBLIC    CODE     ---       _EXTINTSETENABLE2
      01001BACH   PUBLIC    CODE     ---       EXTINTPACKETNEEDSFORWARDING
      01002547H   PUBLIC    CODE     ---       _EXTINTINCREMENTERROR
      01001E12H   PUBLIC    CODE     ---       _EXTINTGOTONEXTSTATEUSINGSECR
      010022CDH   PUBLIC    CODE     ---       EXTINTNEXTRX_CHANNEL
      010026BCH   PUBLIC    CODE     ---       EXTINTDISABLEINTERRUPTS
      01000076H   PUBLIC    CODE     ---       _EXTINTRX_STATEMACHINE
      0100151CH   PUBLIC    CODE     ---       _EXTINTTX_STATEMACHINE
      010021D3H   PUBLIC    CODE     ---       _EXTINTWAKEUP
      01001CEFH   PUBLIC    CODE     ---       EXTERNALINTISR
      00000000H   SYMBOL    CODE     WORD      _ICE_DUMMY_
      01001CEFH   BLOCK     ---      ---       LVL=1
      01001D0CH   BLOCK     ---      ---       LVL=2
      00000024H   SYMBOL    DATA     BYTE      state
      ---         BLOCKEND  ---      ---       LVL=1
      01001CEFH   LINE      CODE     ---       #61
      01001D0CH   LINE      CODE     ---       #67
      01001D0EH   LINE      CODE     ---       #68
LX51 LINKER/LOCATER V3.64                                                             01/15/2014  19:23:23  PAGE 23


      01001D15H   LINE      CODE     ---       #69
      01001D1CH   LINE      CODE     ---       #72
      01001D25H   LINE      CODE     ---       #73
      01001D25H   LINE      CODE     ---       #74
      01001D2CH   LINE      CODE     ---       #76
      01001D30H   LINE      CODE     ---       #77
      01001D30H   LINE      CODE     ---       #78
      01001D35H   LINE      CODE     ---       #79
      01001D37H   LINE      CODE     ---       #81
      01001D3DH   LINE      CODE     ---       #82
      01001D3DH   LINE      CODE     ---       #83
      01001D46H   LINE      CODE     ---       #84
      01001D48H   LINE      CODE     ---       #87
      01001D4EH   LINE      CODE     ---       #88
      01001D4EH   LINE      CODE     ---       #89
      01001D57H   LINE      CODE     ---       #90
      01001D59H   LINE      CODE     ---       #93
      01001D59H   LINE      CODE     ---       #94
      01001D5CH   LINE      CODE     ---       #95
      01001D5CH   LINE      CODE     ---       #96
      01001D5CH   LINE      CODE     ---       #100
      01001D61H   LINE      CODE     ---       #101
      01001D61H   LINE      CODE     ---       #102
      01001D64H   LINE      CODE     ---       #103
      01001D66H   LINE      CODE     ---       #104
      01001D66H   LINE      CODE     ---       #109
      01001D6BH   LINE      CODE     ---       #110
      01001D6BH   LINE      CODE     ---       #111
      01001D6EH   LINE      CODE     ---       #112
      01001D70H   LINE      CODE     ---       #113
      01001D70H   LINE      CODE     ---       #114
      ---         BLOCKEND  ---      ---       LVL=0
      010021D3H   BLOCK     ---      ---       LVL=1
      00000025H   SYMBOL    DATA     BYTE      intStatus2
      010021D3H   LINE      CODE     ---       #133
      010021D5H   LINE      CODE     ---       #134
      010021D5H   LINE      CODE     ---       #136
      010021DAH   LINE      CODE     ---       #137
      010021DAH   LINE      CODE     ---       #139
      010021DDH   LINE      CODE     ---       #141
      010021E1H   LINE      CODE     ---       #143
      010021E4H   LINE      CODE     ---       #144
      010021E4H   LINE      CODE     ---       #146
      010021E9H   LINE      CODE     ---       #147
      010021E9H   LINE      CODE     ---       #148
      010021F0H   LINE      CODE     ---       #150
      010021F5H   LINE      CODE     ---       #152
      010021FAH   LINE      CODE     ---       #154
      01002205H   LINE      CODE     ---       #156
      0100220AH   LINE      CODE     ---       #157
      0100220BH   LINE      CODE     ---       #159
      0100220BH   LINE      CODE     ---       #161
      0100220EH   LINE      CODE     ---       #162
      01002212H   LINE      CODE     ---       #164
      01002215H   LINE      CODE     ---       #165
      01002215H   LINE      CODE     ---       #166
      ---         BLOCKEND  ---      ---       LVL=0
      0100151CH   BLOCK     ---      ---       LVL=1
      00000007H   SYMBOL    DATA     BYTE      msr
      00000025H   SYMBOL    DATA     BYTE      intStatus1
      00000026H   SYMBOL    DATA     BYTE      intStatus2
      01001520H   BLOCK     ---      ---       LVL=2
      00000027H   SYMBOL    DATA     BYTE      temp8
      ---         BLOCKEND  ---      ---       LVL=1
      0100151CH   LINE      CODE     ---       #186
LX51 LINKER/LOCATER V3.64                                                             01/15/2014  19:23:23  PAGE 24


      01001520H   LINE      CODE     ---       #187
      01001520H   LINE      CODE     ---       #195
      0100153EH   LINE      CODE     ---       #196
      0100153EH   LINE      CODE     ---       #198
      0100153EH   LINE      CODE     ---       #199
      0100153EH   LINE      CODE     ---       #200
      0100153EH   LINE      CODE     ---       #202
      01001546H   LINE      CODE     ---       #203
      01001546H   LINE      CODE     ---       #204
      01001549H   LINE      CODE     ---       #205
      01001549H   LINE      CODE     ---       #206
      0100154AH   LINE      CODE     ---       #209
      0100154AH   LINE      CODE     ---       #211
      01001552H   LINE      CODE     ---       #212
      01001552H   LINE      CODE     ---       #215
      01001558H   LINE      CODE     ---       #216
      01001558H   LINE      CODE     ---       #217
      01001564H   LINE      CODE     ---       #218
      01001564H   LINE      CODE     ---       #220
      01001566H   LINE      CODE     ---       #221
      01001572H   LINE      CODE     ---       #223
      01001577H   LINE      CODE     ---       #225
      01001582H   LINE      CODE     ---       #226
      01001582H   LINE      CODE     ---       #227
      01001584H   LINE      CODE     ---       #228
      01001584H   LINE      CODE     ---       #229
      01001584H   LINE      CODE     ---       #232
      01001589H   LINE      CODE     ---       #233
      01001589H   LINE      CODE     ---       #235
      01001592H   LINE      CODE     ---       #236
      01001592H   LINE      CODE     ---       #243
      01001599H   LINE      CODE     ---       #245
      0100159EH   LINE      CODE     ---       #247
      010015A3H   LINE      CODE     ---       #249
      010015AEH   LINE      CODE     ---       #251
      010015B2H   LINE      CODE     ---       #252
      010015B7H   LINE      CODE     ---       #253
      010015B8H   LINE      CODE     ---       #254
      010015B8H   LINE      CODE     ---       #256
      010015B8H   LINE      CODE     ---       #259
      010015BBH   LINE      CODE     ---       #263
      010015BEH   LINE      CODE     ---       #264
      010015C5H   LINE      CODE     ---       #266
      010015C5H   LINE      CODE     ---       #267
      010015C5H   LINE      CODE     ---       #268
      010015C7H   LINE      CODE     ---       #273
      010015C7H   LINE      CODE     ---       #275
      010015CDH   LINE      CODE     ---       #276
      010015D1H   LINE      CODE     ---       #278
      010015D8H   LINE      CODE     ---       #281
      010015E4H   LINE      CODE     ---       #282
      010015E4H   LINE      CODE     ---       #284
      010015EBH   LINE      CODE     ---       #286
      010015F0H   LINE      CODE     ---       #287
      010015F0H   LINE      CODE     ---       #289
      010015F7H   LINE      CODE     ---       #291
      010015FAH   LINE      CODE     ---       #294
      01001600H   LINE      CODE     ---       #295
      01001600H   LINE      CODE     ---       #296
      01001609H   LINE      CODE     ---       #297
      01001609H   LINE      CODE     ---       #300
      01001614H   LINE      CODE     ---       #303
      01001617H   LINE      CODE     ---       #305
      01001617H   LINE      CODE     ---       #306
      01001619H   LINE      CODE     ---       #307
LX51 LINKER/LOCATER V3.64                                                             01/15/2014  19:23:23  PAGE 25


      01001619H   LINE      CODE     ---       #320
      01001619H   LINE      CODE     ---       #321
      01001619H   LINE      CODE     ---       #323
      0100161EH   LINE      CODE     ---       #324
      0100161EH   LINE      CODE     ---       #326
      01001623H   LINE      CODE     ---       #329
      01001628H   LINE      CODE     ---       #330
      01001628H   LINE      CODE     ---       #331
      01001628H   LINE      CODE     ---       #333
      01001628H   LINE      CODE     ---       #335
      0100162FH   LINE      CODE     ---       #336
      01001632H   LINE      CODE     ---       #337
      01001639H   LINE      CODE     ---       #338
      0100163CH   LINE      CODE     ---       #339
      01001643H   LINE      CODE     ---       #341
      01001648H   LINE      CODE     ---       #342
      01001648H   LINE      CODE     ---       #343
      01001648H   LINE      CODE     ---       #348
      01001648H   LINE      CODE     ---       #349
      0100164DH   LINE      CODE     ---       #351
      01001654H   LINE      CODE     ---       #352
      01001659H   LINE      CODE     ---       #354
      0100165EH   LINE      CODE     ---       #355
      01001663H   LINE      CODE     ---       #356
      01001666H   LINE      CODE     ---       #357
      01001669H   LINE      CODE     ---       #358
      0100166BH   LINE      CODE     ---       #359
      01001670H   LINE      CODE     ---       #361
      01001677H   LINE      CODE     ---       #362
      01001677H   LINE      CODE     ---       #365
      01001677H   LINE      CODE     ---       #366
      01001677H   LINE      CODE     ---       #368
      01001677H   LINE      CODE     ---       #369
      ---         BLOCKEND  ---      ---       LVL=0
      01000076H   BLOCK     ---      ---       LVL=1
      00000007H   SYMBOL    DATA     BYTE      msr
      00000025H   SYMBOL    DATA     BYTE      intStatus1
      00000026H   SYMBOL    DATA     BYTE      intStatus2
      0100007AH   BLOCK     ---      ---       LVL=2
      00000027H   SYMBOL    DATA     BYTE      temp8
      ---         BLOCKEND  ---      ---       LVL=1
      01000076H   LINE      CODE     ---       #392
      0100007AH   LINE      CODE     ---       #393
      0100007AH   LINE      CODE     ---       #399
      010000A8H   LINE      CODE     ---       #400
      010000A8H   LINE      CODE     ---       #402
      010000A8H   LINE      CODE     ---       #404
      010000B0H   LINE      CODE     ---       #405
      010000B0H   LINE      CODE     ---       #407
      010000B5H   LINE      CODE     ---       #409
      010000C0H   LINE      CODE     ---       #411
      010000C4H   LINE      CODE     ---       #412
      010000C6H   LINE      CODE     ---       #413
      010000C6H   LINE      CODE     ---       #414
      010000C9H   LINE      CODE     ---       #448
      010000C9H   LINE      CODE     ---       #450
      010000D1H   LINE      CODE     ---       #451
      010000D1H   LINE      CODE     ---       #452
      010000D4H   LINE      CODE     ---       #454
      010000D9H   LINE      CODE     ---       #457
      010000E0H   LINE      CODE     ---       #477
      010000E3H   LINE      CODE     ---       #480
      010000E6H   LINE      CODE     ---       #483
      010000ECH   LINE      CODE     ---       #484
      010000F3H   LINE      CODE     ---       #486
LX51 LINKER/LOCATER V3.64                                                             01/15/2014  19:23:23  PAGE 26


      010000F7H   LINE      CODE     ---       #494
      010000FEH   LINE      CODE     ---       #496
      01000109H   LINE      CODE     ---       #497
      0100010EH   LINE      CODE     ---       #499
      01000112H   LINE      CODE     ---       #500
      01000112H   LINE      CODE     ---       #501
      01000113H   LINE      CODE     ---       #503
      01000113H   LINE      CODE     ---       #505
      0100011BH   LINE      CODE     ---       #506
      0100011BH   LINE      CODE     ---       #508
      0100011EH   LINE      CODE     ---       #510
      01000123H   LINE      CODE     ---       #513
      01000129H   LINE      CODE     ---       #514
      01000129H   LINE      CODE     ---       #515
      01000132H   LINE      CODE     ---       #516
      01000132H   LINE      CODE     ---       #519
      0100013AH   LINE      CODE     ---       #520
      0100013AH   LINE      CODE     ---       #521
      01000141H   LINE      CODE     ---       #522
      0100014AH   LINE      CODE     ---       #523
      01000153H   LINE      CODE     ---       #524
      01000155H   LINE      CODE     ---       #525
      01000157H   LINE      CODE     ---       #527
      01000157H   LINE      CODE     ---       #528
      0100015EH   LINE      CODE     ---       #529
      01000167H   LINE      CODE     ---       #530
      01000170H   LINE      CODE     ---       #531
      01000170H   LINE      CODE     ---       #546
      0100017CH   LINE      CODE     ---       #547
      0100017CH   LINE      CODE     ---       #549
      01000183H   LINE      CODE     ---       #550
      01000186H   LINE      CODE     ---       #551
      0100018DH   LINE      CODE     ---       #552
      01000190H   LINE      CODE     ---       #553
      01000197H   LINE      CODE     ---       #556
      0100019CH   LINE      CODE     ---       #557
      010001A2H   LINE      CODE     ---       #558
      010001A2H   LINE      CODE     ---       #560
      010001A5H   LINE      CODE     ---       #562
      010001B0H   LINE      CODE     ---       #563
      010001B3H   LINE      CODE     ---       #564
      010001B3H   LINE      CODE     ---       #578
      010001B3H   LINE      CODE     ---       #580
      010001B3H   LINE      CODE     ---       #581
      010001B3H   LINE      CODE     ---       #582
      010001B6H   LINE      CODE     ---       #583
      010001B6H   LINE      CODE     ---       #586
      010001C1H   LINE      CODE     ---       #589
      010001CAH   LINE      CODE     ---       #590
      010001CAH   LINE      CODE     ---       #605
      010001DCH   LINE      CODE     ---       #606
      010001DCH   LINE      CODE     ---       #654
      010001E6H   LINE      CODE     ---       #656
      010001ECH   LINE      CODE     ---       #657
      010001ECH   LINE      CODE     ---       #659
      010001F9H   LINE      CODE     ---       #661
      01000202H   LINE      CODE     ---       #663
      0100020BH   LINE      CODE     ---       #665
      01000211H   LINE      CODE     ---       #666
      01000213H   LINE      CODE     ---       #668
      01000213H   LINE      CODE     ---       #670
      01000220H   LINE      CODE     ---       #672
      01000229H   LINE      CODE     ---       #674
      01000232H   LINE      CODE     ---       #675
      01000232H   LINE      CODE     ---       #678
LX51 LINKER/LOCATER V3.64                                                             01/15/2014  19:23:23  PAGE 27


      01000239H   LINE      CODE     ---       #679
      0100023CH   LINE      CODE     ---       #680
      01000243H   LINE      CODE     ---       #681
      01000246H   LINE      CODE     ---       #682
      0100024DH   LINE      CODE     ---       #685
      01000253H   LINE      CODE     ---       #686
      01000253H   LINE      CODE     ---       #688
      01000256H   LINE      CODE     ---       #689
      0100025DH   LINE      CODE     ---       #692
      01000267H   LINE      CODE     ---       #693
      01000278H   LINE      CODE     ---       #696
      0100027BH   LINE      CODE     ---       #699
      01000288H   LINE      CODE     ---       #700
      0100029EH   LINE      CODE     ---       #701
      0100029EH   LINE      CODE     ---       #703
      0100029EH   LINE      CODE     ---       #707
      010002A7H   LINE      CODE     ---       #710
      010002AFH   LINE      CODE     ---       #711
      010002AFH   LINE      CODE     ---       #713
      010002B2H   LINE      CODE     ---       #714
      010002C6H   LINE      CODE     ---       #717
      010002C9H   LINE      CODE     ---       #720
      010002CCH   LINE      CODE     ---       #721
      010002E7H   LINE      CODE     ---       #722
      010002F2H   LINE      CODE     ---       #723
      010002FDH   LINE      CODE     ---       #725
      010002FDH   LINE      CODE     ---       #727
      010002FDH   LINE      CODE     ---       #729
      01000308H   LINE      CODE     ---       #730
      01000319H   LINE      CODE     ---       #733
      0100031CH   LINE      CODE     ---       #736
      01000327H   LINE      CODE     ---       #737
      0100033DH   LINE      CODE     ---       #738
      0100033DH   LINE      CODE     ---       #740
      0100033DH   LINE      CODE     ---       #743
      01000344H   LINE      CODE     ---       #746
      0100034FH   LINE      CODE     ---       #747
      01000354H   LINE      CODE     ---       #749
      01000359H   LINE      CODE     ---       #751
      0100035DH   LINE      CODE     ---       #752
      0100035EH   LINE      CODE     ---       #753
      0100035EH   LINE      CODE     ---       #766
      0100035EH   LINE      CODE     ---       #769
      0100035EH   LINE      CODE     ---       #772
      0100035EH   LINE      CODE     ---       #774
      01000367H   LINE      CODE     ---       #775
      01000367H   LINE      CODE     ---       #807
      0100036AH   LINE      CODE     ---       #810
      0100036FH   LINE      CODE     ---       #811
      01000371H   LINE      CODE     ---       #816
      01000379H   LINE      CODE     ---       #817
      01000379H   LINE      CODE     ---       #818
      01000380H   LINE      CODE     ---       #819
      01000389H   LINE      CODE     ---       #820
      0100038BH   LINE      CODE     ---       #821
      0100038BH   LINE      CODE     ---       #822
      0100038DH   LINE      CODE     ---       #824
      0100038DH   LINE      CODE     ---       #825
      01000394H   LINE      CODE     ---       #826
      0100039DH   LINE      CODE     ---       #827
      010003A4H   LINE      CODE     ---       #828
      010003A4H   LINE      CODE     ---       #831
      010003ADH   LINE      CODE     ---       #833
      010003B8H   LINE      CODE     ---       #836
      010003BCH   LINE      CODE     ---       #838
LX51 LINKER/LOCATER V3.64                                                             01/15/2014  19:23:23  PAGE 28


      010003C0H   LINE      CODE     ---       #840
      010003C5H   LINE      CODE     ---       #842
      010003CBH   LINE      CODE     ---       #843
      010003CBH   LINE      CODE     ---       #845
      010003D4H   LINE      CODE     ---       #848
      010003DBH   LINE      CODE     ---       #850
      010003E0H   LINE      CODE     ---       #852
      010003E3H   LINE      CODE     ---       #853
      010003E5H   LINE      CODE     ---       #855
      010003E9H   LINE      CODE     ---       #858
      010003F2H   LINE      CODE     ---       #861
      010003F7H   LINE      CODE     ---       #862
      010003F7H   LINE      CODE     ---       #863
      010003F9H   LINE      CODE     ---       #864
      010003F9H   LINE      CODE     ---       #866
      010003F9H   LINE      CODE     ---       #868
      01000400H   LINE      CODE     ---       #870
      01000405H   LINE      CODE     ---       #872
      01000410H   LINE      CODE     ---       #874
      01000414H   LINE      CODE     ---       #875
      01000417H   LINE      CODE     ---       #876
      01000418H   LINE      CODE     ---       #877
      01000418H   LINE      CODE     ---       #878
      01000418H   LINE      CODE     ---       #879
      01000418H   LINE      CODE     ---       #884
      0100041DH   LINE      CODE     ---       #887
      01000421H   LINE      CODE     ---       #889
      01000424H   LINE      CODE     ---       #891
      01000424H   LINE      CODE     ---       #892
      01000426H   LINE      CODE     ---       #893
      01000426H   LINE      CODE     ---       #895
      0100042EH   LINE      CODE     ---       #896
      0100042EH   LINE      CODE     ---       #898
      01000433H   LINE      CODE     ---       #900
      01000437H   LINE      CODE     ---       #901
      0100043AH   LINE      CODE     ---       #904
      01000441H   LINE      CODE     ---       #905
      01000444H   LINE      CODE     ---       #906
      0100044BH   LINE      CODE     ---       #907
      0100044EH   LINE      CODE     ---       #908
      01000455H   LINE      CODE     ---       #911
      0100045AH   LINE      CODE     ---       #913
      01000460H   LINE      CODE     ---       #914
      01000460H   LINE      CODE     ---       #916
      01000463H   LINE      CODE     ---       #918
      0100046EH   LINE      CODE     ---       #919
      01000471H   LINE      CODE     ---       #920
      01000471H   LINE      CODE     ---       #934
      01000471H   LINE      CODE     ---       #936
      01000471H   LINE      CODE     ---       #937
      01000471H   LINE      CODE     ---       #938
      01000471H   LINE      CODE     ---       #939
      01000473H   LINE      CODE     ---       #943
      01000473H   LINE      CODE     ---       #945
      01000478H   LINE      CODE     ---       #946
      01000478H   LINE      CODE     ---       #948
      0100047FH   LINE      CODE     ---       #950
      01000482H   LINE      CODE     ---       #952
      01000486H   LINE      CODE     ---       #954
      0100048AH   LINE      CODE     ---       #956
      0100048FH   LINE      CODE     ---       #984
      01000494H   LINE      CODE     ---       #985
      01000494H   LINE      CODE     ---       #986
      01000494H   LINE      CODE     ---       #988
      01000499H   LINE      CODE     ---       #989
LX51 LINKER/LOCATER V3.64                                                             01/15/2014  19:23:23  PAGE 29


      01000499H   LINE      CODE     ---       #990
      0100049DH   LINE      CODE     ---       #992
      010004A0H   LINE      CODE     ---       #993
      010004A0H   LINE      CODE     ---       #994
      010004A0H   LINE      CODE     ---       #1000
      010004A0H   LINE      CODE     ---       #1001
      010004A0H   LINE      CODE     ---       #1002
      010004A0H   LINE      CODE     ---       #1004
      010004A5H   LINE      CODE     ---       #1005
      010004A5H   LINE      CODE     ---       #1006
      010004A8H   LINE      CODE     ---       #1007
      010004A8H   LINE      CODE     ---       #1008
      010004A9H   LINE      CODE     ---       #1011
      010004A9H   LINE      CODE     ---       #1013
      010004AEH   LINE      CODE     ---       #1014
      010004AEH   LINE      CODE     ---       #1015
      010004B3H   LINE      CODE     ---       #1018
      010004BAH   LINE      CODE     ---       #1019
      010004BFH   LINE      CODE     ---       #1035
      010004C5H   LINE      CODE     ---       #1036
      010004C5H   LINE      CODE     ---       #1038
      010004C8H   LINE      CODE     ---       #1040
      010004D3H   LINE      CODE     ---       #1041
      010004D6H   LINE      CODE     ---       #1042
      010004D6H   LINE      CODE     ---       #1056
      010004DBH   LINE      CODE     ---       #1058
      010004DFH   LINE      CODE     ---       #1059
      010004E1H   LINE      CODE     ---       #1060
      010004E1H   LINE      CODE     ---       #1061
      010004E2H   LINE      CODE     ---       #1064
      010004E2H   LINE      CODE     ---       #1065
      010004E7H   LINE      CODE     ---       #1067
      010004EEH   LINE      CODE     ---       #1068
      010004F3H   LINE      CODE     ---       #1070
      010004F8H   LINE      CODE     ---       #1071
      010004FDH   LINE      CODE     ---       #1072
      01000500H   LINE      CODE     ---       #1073
      01000503H   LINE      CODE     ---       #1074
      01000505H   LINE      CODE     ---       #1075
      0100050AH   LINE      CODE     ---       #1077
      01000511H   LINE      CODE     ---       #1078
      01000511H   LINE      CODE     ---       #1080
      01000511H   LINE      CODE     ---       #1081
      01000511H   LINE      CODE     ---       #1082
      01000511H   LINE      CODE     ---       #1083
      ---         BLOCKEND  ---      ---       LVL=0
      010026BCH   BLOCK     ---      ---       LVL=1
      010026BCH   LINE      CODE     ---       #1096
      010026BCH   LINE      CODE     ---       #1097
      010026BCH   LINE      CODE     ---       #1099
      010026BFH   LINE      CODE     ---       #1101
      010026C6H   LINE      CODE     ---       #1103
      ---         BLOCKEND  ---      ---       LVL=0
      010022CDH   BLOCK     ---      ---       LVL=1
      010022CDH   BLOCK     ---      ---       LVL=2
      00000007H   SYMBOL    DATA     BYTE      mask
      0000002BH   SYMBOL    DATA     BYTE      n
      ---         BLOCKEND  ---      ---       LVL=1
      010022CDH   LINE      CODE     ---       #1122
      010022CDH   LINE      CODE     ---       #1123
      010022CDH   LINE      CODE     ---       #1127
      010022D0H   LINE      CODE     ---       #1130
      010022D2H   LINE      CODE     ---       #1131
      010022DFH   LINE      CODE     ---       #1134
      010022DFH   LINE      CODE     ---       #1135
LX51 LINKER/LOCATER V3.64                                                             01/15/2014  19:23:23  PAGE 30


      010022E1H   LINE      CODE     ---       #1136
      010022E4H   LINE      CODE     ---       #1137
      010022E8H   LINE      CODE     ---       #1138
      010022EDH   LINE      CODE     ---       #1141
      010022F4H   LINE      CODE     ---       #1143
      01002300H   LINE      CODE     ---       #1144
      01002303H   LINE      CODE     ---       #1145
      ---         BLOCKEND  ---      ---       LVL=0
      01001E12H   BLOCK     ---      ---       LVL=1
      00000028H   SYMBOL    DATA     BYTE      tx
      01001E14H   BLOCK     ---      ---       LVL=2
      00000029H   SYMBOL    DATA     BYTE      next
      0000002AH   SYMBOL    DATA     BYTE      temp8
      ---         BLOCKEND  ---      ---       LVL=1
      01001E12H   LINE      CODE     ---       #1164
      01001E14H   LINE      CODE     ---       #1165
      01001E14H   LINE      CODE     ---       #1173
      01001E17H   LINE      CODE     ---       #1182
      01001E1DH   LINE      CODE     ---       #1183
      01001E1DH   LINE      CODE     ---       #1184
      01001E21H   LINE      CODE     ---       #1185
      01001E23H   LINE      CODE     ---       #1187
      01001E23H   LINE      CODE     ---       #1188
      01001E29H   LINE      CODE     ---       #1189
      01001E29H   LINE      CODE     ---       #1191
      01001E2DH   LINE      CODE     ---       #1192
      01001E2DH   LINE      CODE     ---       #1194
      01001E31H   LINE      CODE     ---       #1195
      01001E35H   LINE      CODE     ---       #1197
      01001E38H   LINE      CODE     ---       #1198
      01001E38H   LINE      CODE     ---       #1200
      01001E3EH   LINE      CODE     ---       #1201
      01001E3EH   LINE      CODE     ---       #1204
      01001E45H   LINE      CODE     ---       #1205
      01001E48H   LINE      CODE     ---       #1206
      01001E4FH   LINE      CODE     ---       #1207
      01001E52H   LINE      CODE     ---       #1208
      01001E59H   LINE      CODE     ---       #1212
      01001E5EH   LINE      CODE     ---       #1214
      01001E64H   LINE      CODE     ---       #1215
      01001E64H   LINE      CODE     ---       #1217
      01001E67H   LINE      CODE     ---       #1219
      01001E72H   LINE      CODE     ---       #1220
      01001E75H   LINE      CODE     ---       #1221
      01001E75H   LINE      CODE     ---       #1235
      01001E7AH   LINE      CODE     ---       #1237
      01001E7EH   LINE      CODE     ---       #1238
      01001E80H   LINE      CODE     ---       #1239
      01001E81H   LINE      CODE     ---       #1242
      01001E81H   LINE      CODE     ---       #1245
      01001E86H   LINE      CODE     ---       #1267
      01001E8AH   LINE      CODE     ---       #1269
      01001E8DH   LINE      CODE     ---       #1270
      01001E8DH   LINE      CODE     ---       #1271
      ---         BLOCKEND  ---      ---       LVL=0
      01002547H   BLOCK     ---      ---       LVL=1
      00000007H   SYMBOL    DATA     BYTE      m
      01002547H   LINE      CODE     ---       #1293
      01002547H   LINE      CODE     ---       #1294
      01002547H   LINE      CODE     ---       #1295
      0100254AH   LINE      CODE     ---       #1297
      01002551H   LINE      CODE     ---       #1298
      01002551H   LINE      CODE     ---       #1299
      0100255CH   LINE      CODE     ---       #1300
      01002562H   LINE      CODE     ---       #1301
LX51 LINKER/LOCATER V3.64                                                             01/15/2014  19:23:23  PAGE 31


      01002562H   LINE      CODE     ---       #1302
      ---         BLOCKEND  ---      ---       LVL=0
      01001BACH   BLOCK     ---      ---       LVL=1
      01001BACH   BLOCK     ---      ---       LVL=2
      0000000EH   SYMBOL    DATA     BYTE      nextFree
      00000006H   SYMBOL    DATA     BYTE      i
      00000007H   SYMBOL    DATA     BYTE      seq
      ---         BLOCKEND  ---      ---       LVL=1
      01001BACH   LINE      CODE     ---       #1330
      01001BACH   LINE      CODE     ---       #1331
      01001BACH   LINE      CODE     ---       #1338
      01001BB5H   LINE      CODE     ---       #1339
      01001BB5H   LINE      CODE     ---       #1341
      01001BBCH   LINE      CODE     ---       #1342
      01001BBEH   LINE      CODE     ---       #1344
      01001BC5H   LINE      CODE     ---       #1347
      01001BC7H   LINE      CODE     ---       #1348
      01001BC7H   LINE      CODE     ---       #1349
      01001BDBH   LINE      CODE     ---       #1350
      01001BDBH   LINE      CODE     ---       #1351
      01001BEDH   LINE      CODE     ---       #1352
      01001BEDH   LINE      CODE     ---       #1354
      01001BFFH   LINE      CODE     ---       #1355
      01001BFFH   LINE      CODE     ---       #1358
      01001C02H   LINE      CODE     ---       #1359
      01001C02H   LINE      CODE     ---       #1360
      01001C02H   LINE      CODE     ---       #1361
      01001C02H   LINE      CODE     ---       #1362
      01001C06H   LINE      CODE     ---       #1366
      01001C1BH   LINE      CODE     ---       #1367
      01001C2CH   LINE      CODE     ---       #1368
      01001C3EH   LINE      CODE     ---       #1370
      01001C45H   LINE      CODE     ---       #1371
      01001C49H   LINE      CODE     ---       #1373
      01001C4CH   LINE      CODE     ---       #1375
      01001C4FH   LINE      CODE     ---       #1376
      01001C4FH   LINE      CODE     ---       #1378
      01001C4FH   LINE      CODE     ---       #1379
      01001C51H   LINE      CODE     ---       #1380
      01001C51H   LINE      CODE     ---       #1381
      ---         BLOCKEND  ---      ---       LVL=0
      01002604H   BLOCK     ---      ---       LVL=1
      00000005H   SYMBOL    DATA     BYTE      value
      01002604H   LINE      CODE     ---       #1398
      01002606H   LINE      CODE     ---       #1399
      01002606H   LINE      CODE     ---       #1401
      0100260CH   LINE      CODE     ---       #1402
      0100260CH   LINE      CODE     ---       #1403
      0100260FH   LINE      CODE     ---       #1404
      0100260FH   LINE      CODE     ---       #1406
      01002615H   LINE      CODE     ---       #1407
      01002618H   LINE      CODE     ---       #1409
      ---         BLOCKEND  ---      ---       LVL=0
      010024DEH   BLOCK     ---      ---       LVL=1
      00000005H   SYMBOL    DATA     BYTE      value
      010024DEH   LINE      CODE     ---       #1424
      010024E0H   LINE      CODE     ---       #1425
      010024E0H   LINE      CODE     ---       #1427
      010024E6H   LINE      CODE     ---       #1428
      010024E6H   LINE      CODE     ---       #1429
      010024E9H   LINE      CODE     ---       #1430
      010024EBH   LINE      CODE     ---       #1431
      010024EBH   LINE      CODE     ---       #1432
      010024F1H   LINE      CODE     ---       #1433
      010024F4H   LINE      CODE     ---       #1435
LX51 LINKER/LOCATER V3.64                                                             01/15/2014  19:23:23  PAGE 32


      010024FAH   LINE      CODE     ---       #1436
      010024FDH   LINE      CODE     ---       #1438
      ---         BLOCKEND  ---      ---       LVL=0
      010020F6H   BLOCK     ---      ---       LVL=1
      010020F6H   BLOCK     ---      ---       LVL=2
      00000007H   SYMBOL    DATA     BYTE      rcid
      00000007H   SYMBOL    DATA     BYTE      packetLength
      ---         BLOCKEND  ---      ---       LVL=1
      010020F6H   LINE      CODE     ---       #1466
      010020F6H   LINE      CODE     ---       #1467
      010020F6H   LINE      CODE     ---       #1471
      010020FCH   LINE      CODE     ---       #1472
      010020FFH   LINE      CODE     ---       #1474
      01002105H   LINE      CODE     ---       #1475
      01002105H   LINE      CODE     ---       #1477
      0100210BH   LINE      CODE     ---       #1478
      0100210BH   LINE      CODE     ---       #1480
      01002110H   LINE      CODE     ---       #1484
      01002116H   LINE      CODE     ---       #1485
      01002116H   LINE      CODE     ---       #1488
      01002118H   LINE      CODE     ---       #1490
      0100211AH   LINE      CODE     ---       #1491
      0100211AH   LINE      CODE     ---       #1492
      0100211AH   LINE      CODE     ---       #1493
      0100211AH   LINE      CODE     ---       #1495
      01002120H   LINE      CODE     ---       #1496
      01002120H   LINE      CODE     ---       #1499
      01002125H   LINE      CODE     ---       #1501
      01002128H   LINE      CODE     ---       #1502
      01002128H   LINE      CODE     ---       #1505
      0100212EH   LINE      CODE     ---       #1506
      0100212EH   LINE      CODE     ---       #1507
      01002133H   LINE      CODE     ---       #1509
      0100213CH   LINE      CODE     ---       #1510
      0100213CH   LINE      CODE     ---       #1511
      0100213FH   LINE      CODE     ---       #1513
      0100213FH   LINE      CODE     ---       #1514
      0100213FH   LINE      CODE     ---       #1516
      01002141H   LINE      CODE     ---       #1517
      ---         BLOCKEND  ---      ---       LVL=0
      01001D8BH   BLOCK     ---      ---       LVL=1
      01001D8BH   BLOCK     ---      ---       LVL=2
      00000028H   SYMBOL    DATA     BYTE      rsid
      00000029H   SYMBOL    DATA     BYTE      rdid
      ---         BLOCKEND  ---      ---       LVL=1
      01001D8BH   LINE      CODE     ---       #1538
      01001D8BH   LINE      CODE     ---       #1539
      01001D8BH   LINE      CODE     ---       #1544
      01001D91H   LINE      CODE     ---       #1545
      01001D91H   LINE      CODE     ---       #1547
      01001D97H   LINE      CODE     ---       #1548
      01001D9BH   LINE      CODE     ---       #1550
      01001DA2H   LINE      CODE     ---       #1557
      01001DAFH   LINE      CODE     ---       #1558
      01001DAFH   LINE      CODE     ---       #1559
      01001DB2H   LINE      CODE     ---       #1560
      01001DB2H   LINE      CODE     ---       #1561
      01001DB2H   LINE      CODE     ---       #1564
      01001DB8H   LINE      CODE     ---       #1565
      01001DB8H   LINE      CODE     ---       #1568
      01001DBEH   LINE      CODE     ---       #1569
      01001DC2H   LINE      CODE     ---       #1571
      01001DC9H   LINE      CODE     ---       #1578
      01001DD0H   LINE      CODE     ---       #1579
      01001DD0H   LINE      CODE     ---       #1580
LX51 LINKER/LOCATER V3.64                                                             01/15/2014  19:23:23  PAGE 33


      01001DD3H   LINE      CODE     ---       #1581
      01001DD5H   LINE      CODE     ---       #1582
      01001DD5H   LINE      CODE     ---       #1585
      01001DDBH   LINE      CODE     ---       #1586
      01001DDBH   LINE      CODE     ---       #1587
      01001DE0H   LINE      CODE     ---       #1588
      01001DE0H   LINE      CODE     ---       #1589
      01001DE3H   LINE      CODE     ---       #1590
      01001DE6H   LINE      CODE     ---       #1591
      01001DE6H   LINE      CODE     ---       #1592
      01001DE6H   LINE      CODE     ---       #1595
      01001DECH   LINE      CODE     ---       #1596
      01001DECH   LINE      CODE     ---       #1598
      01001DF0H   LINE      CODE     ---       #1599
      01001DF0H   LINE      CODE     ---       #1600
      01001DF7H   LINE      CODE     ---       #1601
      01001DF7H   LINE      CODE     ---       #1602
      01001DFAH   LINE      CODE     ---       #1603
      01001DFCH   LINE      CODE     ---       #1604
      01001DFCH   LINE      CODE     ---       #1605
      01001DFCH   LINE      CODE     ---       #1608
      01001DFCH   LINE      CODE     ---       #1609
      01001E09H   LINE      CODE     ---       #1610
      01001E09H   LINE      CODE     ---       #1611
      01001E0CH   LINE      CODE     ---       #1612
      01001E0CH   LINE      CODE     ---       #1613
      01001E0CH   LINE      CODE     ---       #1614
      01001E0CH   LINE      CODE     ---       #1616
      01001E0FH   LINE      CODE     ---       #1617
      01001E0FH   LINE      CODE     ---       #1619
      01001E0FH   LINE      CODE     ---       #1620
      01001E11H   LINE      CODE     ---       #1621
      01001E11H   LINE      CODE     ---       #1622
      ---         BLOCKEND  ---      ---       LVL=0

      ---         MODULE    ---      ---       EZMACPRO_TIMERINT
      00000012H   PUBLIC    DATA     BYTE      CHANNELOCCUPIEDCOUNTER
      00000011H   PUBLIC    DATA     BYTE      CHANNELOCCUPIEDINSTARTPERIOD
      01002421H   PUBLIC    CODE     ---       _TIMERINTSETFUNCTION1
      0100261DH   PUBLIC    CODE     ---       _TIMERINTSETENABLE2
      01002563H   PUBLIC    CODE     ---       _TIMERINTINCREMENTERROR
      01001F0AH   PUBLIC    CODE     ---       _TIMERINTGOTONEXTSTATEUSINGSECR
      01002216H   PUBLIC    CODE     ---       TIMERINTNEXTRX_CHANNEL
      010026CBH   PUBLIC    CODE     ---       TIMERINTDISABLEINTERRUPTS
      01002636H   PUBLIC    CODE     ---       TIMERINTRANDOM
      01000B36H   PUBLIC    CODE     ---       _TIMERINTRX_STATEMACHINE
      01001376H   PUBLIC    CODE     ---       _TIMERINTTX_STATEMACHINE
      010026F8H   PUBLIC    CODE     ---       TIMERINTWAKEUP
      01001E8EH   PUBLIC    CODE     ---       TIMERINTT3_ISR
      00000000H   SYMBOL    CODE     WORD      _ICE_DUMMY_
      01001E8EH   BLOCK     ---      ---       LVL=1
      01001EABH   BLOCK     ---      ---       LVL=2
      0000002FH   SYMBOL    DATA     BYTE      state
      ---         BLOCKEND  ---      ---       LVL=1
      01001E8EH   LINE      CODE     ---       #63
      01001EABH   LINE      CODE     ---       #67
      01001EB1H   LINE      CODE     ---       #68
      01001EB1H   LINE      CODE     ---       #69
      01001EB4H   LINE      CODE     ---       #70
      01001EB7H   LINE      CODE     ---       #71
      01001EBAH   LINE      CODE     ---       #73
      01001EC1H   LINE      CODE     ---       #75
      01001EC5H   LINE      CODE     ---       #76
      01001EC5H   LINE      CODE     ---       #77
      01001EC8H   LINE      CODE     ---       #78
LX51 LINKER/LOCATER V3.64                                                             01/15/2014  19:23:23  PAGE 34


      01001ECAH   LINE      CODE     ---       #80
      01001ED0H   LINE      CODE     ---       #81
      01001ED0H   LINE      CODE     ---       #82
      01001ED5H   LINE      CODE     ---       #83
      01001ED7H   LINE      CODE     ---       #86
      01001EDDH   LINE      CODE     ---       #87
      01001EDDH   LINE      CODE     ---       #88
      01001EE2H   LINE      CODE     ---       #89
      01001EE4H   LINE      CODE     ---       #92
      01001EE4H   LINE      CODE     ---       #93
      01001EE4H   LINE      CODE     ---       #94
      01001EE4H   LINE      CODE     ---       #96
      01001EE4H   LINE      CODE     ---       #97
      01001EE7H   LINE      CODE     ---       #98
      01001EEFH   LINE      CODE     ---       #99
      01001EEFH   LINE      CODE     ---       #100
      ---         BLOCKEND  ---      ---       LVL=0
      010026F8H   BLOCK     ---      ---       LVL=1
      010026F8H   LINE      CODE     ---       #116
      010026F8H   LINE      CODE     ---       #117
      010026F8H   LINE      CODE     ---       #119
      010026FDH   LINE      CODE     ---       #121
      01002701H   LINE      CODE     ---       #123
      ---         BLOCKEND  ---      ---       LVL=0
      01001376H   BLOCK     ---      ---       LVL=1
      00000007H   SYMBOL    DATA     BYTE      state
      01001376H   BLOCK     ---      ---       LVL=2
      00000030H   SYMBOL    DATA     DWORD     timeout
      ---         BLOCKEND  ---      ---       LVL=1
      01001376H   LINE      CODE     ---       #144
      01001376H   LINE      CODE     ---       #145
      01001376H   LINE      CODE     ---       #158
      0100139AH   LINE      CODE     ---       #159
      0100139AH   LINE      CODE     ---       #161
      0100139AH   LINE      CODE     ---       #162
      0100139EH   LINE      CODE     ---       #163
      0100139EH   LINE      CODE     ---       #164
      010013A0H   LINE      CODE     ---       #166
      010013A4H   LINE      CODE     ---       #168
      010013A4H   LINE      CODE     ---       #170
      010013A4H   LINE      CODE     ---       #172
      010013A4H   LINE      CODE     ---       #174
      010013A4H   LINE      CODE     ---       #175
      010013A7H   LINE      CODE     ---       #177
      010013A7H   LINE      CODE     ---       #178
      010013AAH   LINE      CODE     ---       #179
      010013ADH   LINE      CODE     ---       #180
      010013AFH   LINE      CODE     ---       #182
      010013B3H   LINE      CODE     ---       #184
      010013B3H   LINE      CODE     ---       #186
      010013B3H   LINE      CODE     ---       #188
      010013B3H   LINE      CODE     ---       #189
      010013B3H   LINE      CODE     ---       #190
      010013B3H   LINE      CODE     ---       #191
      010013B6H   LINE      CODE     ---       #194
      010013B6H   LINE      CODE     ---       #195
      010013BAH   LINE      CODE     ---       #196
      010013BAH   LINE      CODE     ---       #198
      010013BEH   LINE      CODE     ---       #199
      010013BEH   LINE      CODE     ---       #201
      010013BEH   LINE      CODE     ---       #203
      010013BEH   LINE      CODE     ---       #205
      010013BEH   LINE      CODE     ---       #207
      010013BEH   LINE      CODE     ---       #209
      010013BEH   LINE      CODE     ---       #211
LX51 LINKER/LOCATER V3.64                                                             01/15/2014  19:23:23  PAGE 35


      010013BEH   LINE      CODE     ---       #212
      010013BEH   LINE      CODE     ---       #213
      010013C1H   LINE      CODE     ---       #215
      010013C1H   LINE      CODE     ---       #216
      010013C4H   LINE      CODE     ---       #218
      010013E8H   LINE      CODE     ---       #220
      010013F2H   LINE      CODE     ---       #222
      010013F6H   LINE      CODE     ---       #224
      010013F6H   LINE      CODE     ---       #226
      010013F6H   LINE      CODE     ---       #227
      010013F6H   LINE      CODE     ---       #228
      010013F6H   LINE      CODE     ---       #229
      010013F8H   LINE      CODE     ---       #231
      010013F8H   LINE      CODE     ---       #232
      010013FCH   LINE      CODE     ---       #233
      010013FCH   LINE      CODE     ---       #235
      01001420H   LINE      CODE     ---       #237
      0100142AH   LINE      CODE     ---       #239
      0100142EH   LINE      CODE     ---       #240
      0100142EH   LINE      CODE     ---       #241
      01001430H   LINE      CODE     ---       #243
      01001430H   LINE      CODE     ---       #244
      01001437H   LINE      CODE     ---       #245
      01001437H   LINE      CODE     ---       #246
      0100143AH   LINE      CODE     ---       #247
      0100143CH   LINE      CODE     ---       #249
      01001445H   LINE      CODE     ---       #251
      01001449H   LINE      CODE     ---       #253
      0100144EH   LINE      CODE     ---       #255
      01001453H   LINE      CODE     ---       #256
      01001453H   LINE      CODE     ---       #257
      01001455H   LINE      CODE     ---       #259
      01001455H   LINE      CODE     ---       #260
      01001458H   LINE      CODE     ---       #261
      0100145AH   LINE      CODE     ---       #262
      01001463H   LINE      CODE     ---       #263
      01001463H   LINE      CODE     ---       #265
      01001463H   LINE      CODE     ---       #267
      01001463H   LINE      CODE     ---       #269
      01001463H   LINE      CODE     ---       #270
      01001463H   LINE      CODE     ---       #272
      01001463H   LINE      CODE     ---       #273
      01001465H   LINE      CODE     ---       #294
      01001465H   LINE      CODE     ---       #295
      01001469H   LINE      CODE     ---       #296
      01001469H   LINE      CODE     ---       #298
      0100146EH   LINE      CODE     ---       #300
      01001473H   LINE      CODE     ---       #302
      0100147AH   LINE      CODE     ---       #304
      0100147FH   LINE      CODE     ---       #306
      0100148AH   LINE      CODE     ---       #308
      0100148EH   LINE      CODE     ---       #309
      01001491H   LINE      CODE     ---       #310
      01001492H   LINE      CODE     ---       #312
      01001492H   LINE      CODE     ---       #313
      01001495H   LINE      CODE     ---       #314
      01001497H   LINE      CODE     ---       #315
      010014A0H   LINE      CODE     ---       #316
      010014A0H   LINE      CODE     ---       #318
      010014A3H   LINE      CODE     ---       #320
      010014AEH   LINE      CODE     ---       #322
      010014B2H   LINE      CODE     ---       #323
      010014B5H   LINE      CODE     ---       #325
      010014BAH   LINE      CODE     ---       #326
      010014BAH   LINE      CODE     ---       #328
LX51 LINKER/LOCATER V3.64                                                             01/15/2014  19:23:23  PAGE 36


      010014BAH   LINE      CODE     ---       #330
      010014BDH   LINE      CODE     ---       #332
      010014C1H   LINE      CODE     ---       #335
      010014C6H   LINE      CODE     ---       #338
      010014C9H   LINE      CODE     ---       #339
      010014C9H   LINE      CODE     ---       #341
      010014C9H   LINE      CODE     ---       #343
      010014C9H   LINE      CODE     ---       #347
      010014C9H   LINE      CODE     ---       #372
      010014CDH   LINE      CODE     ---       #374
      010014D0H   LINE      CODE     ---       #375
      010014D0H   LINE      CODE     ---       #380
      010014D0H   LINE      CODE     ---       #381
      010014D5H   LINE      CODE     ---       #383
      010014DCH   LINE      CODE     ---       #384
      010014E1H   LINE      CODE     ---       #386
      010014E6H   LINE      CODE     ---       #387
      010014EBH   LINE      CODE     ---       #389
      010014F0H   LINE      CODE     ---       #393
      010014F3H   LINE      CODE     ---       #395
      010014F8H   LINE      CODE     ---       #396
      010014F8H   LINE      CODE     ---       #400
      010014F8H   LINE      CODE     ---       #401
      010014FDH   LINE      CODE     ---       #403
      01001504H   LINE      CODE     ---       #404
      01001509H   LINE      CODE     ---       #406
      0100150EH   LINE      CODE     ---       #407
      01001513H   LINE      CODE     ---       #408
      01001516H   LINE      CODE     ---       #409
      01001519H   LINE      CODE     ---       #410
      0100151BH   LINE      CODE     ---       #416
      0100151BH   LINE      CODE     ---       #418
      0100151BH   LINE      CODE     ---       #419
      0100151BH   LINE      CODE     ---       #421
      0100151BH   LINE      CODE     ---       #422
      ---         BLOCKEND  ---      ---       LVL=0
      01000B36H   BLOCK     ---      ---       LVL=1
      00000007H   SYMBOL    DATA     BYTE      state
      01000B36H   BLOCK     ---      ---       LVL=2
      00000005H   SYMBOL    DATA     BYTE      temp8
      00000030H   SYMBOL    DATA     DWORD     timeout
      ---         BLOCKEND  ---      ---       LVL=1
      01000B36H   LINE      CODE     ---       #444
      01000B36H   LINE      CODE     ---       #445
      01000B36H   LINE      CODE     ---       #450
      01000B64H   LINE      CODE     ---       #451
      01000B64H   LINE      CODE     ---       #453
      01000B64H   LINE      CODE     ---       #455
      01000B6AH   LINE      CODE     ---       #456
      01000B6AH   LINE      CODE     ---       #457
      01000B6DH   LINE      CODE     ---       #458
      01000B6DH   LINE      CODE     ---       #460
      01000B78H   LINE      CODE     ---       #461
      01000B78H   LINE      CODE     ---       #462
      01000B7BH   LINE      CODE     ---       #498
      01000B7BH   LINE      CODE     ---       #500
      01000B81H   LINE      CODE     ---       #501
      01000B81H   LINE      CODE     ---       #502
      01000B88H   LINE      CODE     ---       #503
      01000B8BH   LINE      CODE     ---       #504
      01000B8DH   LINE      CODE     ---       #505
      01000B8FH   LINE      CODE     ---       #507
      01000B8FH   LINE      CODE     ---       #508
      01000B98H   LINE      CODE     ---       #509
      01000B98H   LINE      CODE     ---       #515
LX51 LINKER/LOCATER V3.64                                                             01/15/2014  19:23:23  PAGE 37


      01000B98H   LINE      CODE     ---       #518
      01000B9DH   LINE      CODE     ---       #520
      01000BA4H   LINE      CODE     ---       #523
      01000BA9H   LINE      CODE     ---       #525
      01000BAFH   LINE      CODE     ---       #526
      01000BAFH   LINE      CODE     ---       #527
      01000BB2H   LINE      CODE     ---       #528
      01000BB2H   LINE      CODE     ---       #530
      01000BBDH   LINE      CODE     ---       #531
      01000BC0H   LINE      CODE     ---       #555
      01000BC5H   LINE      CODE     ---       #557
      01000BC9H   LINE      CODE     ---       #558
      01000BCAH   LINE      CODE     ---       #562
      01000BCAH   LINE      CODE     ---       #590
      01000BCAH   LINE      CODE     ---       #592
      01000BCAH   LINE      CODE     ---       #593
      01000BCDH   LINE      CODE     ---       #599
      01000BCDH   LINE      CODE     ---       #600
      01000BD1H   LINE      CODE     ---       #601
      01000BD1H   LINE      CODE     ---       #602
      01000BD3H   LINE      CODE     ---       #604
      01000BD7H   LINE      CODE     ---       #606
      01000BD7H   LINE      CODE     ---       #608
      01000BD7H   LINE      CODE     ---       #610
      01000BD7H   LINE      CODE     ---       #611
      01000BD7H   LINE      CODE     ---       #612
      01000BD9H   LINE      CODE     ---       #614
      01000BD9H   LINE      CODE     ---       #615
      01000BDCH   LINE      CODE     ---       #616
      01000BDFH   LINE      CODE     ---       #617
      01000BE1H   LINE      CODE     ---       #619
      01000BEAH   LINE      CODE     ---       #621
      01000BEAH   LINE      CODE     ---       #623
      01000BEDH   LINE      CODE     ---       #625
      01000BF2H   LINE      CODE     ---       #626
      01000BF2H   LINE      CODE     ---       #627
      01000BF2H   LINE      CODE     ---       #628
      01000BF5H   LINE      CODE     ---       #631
      01000BF5H   LINE      CODE     ---       #632
      01000BF9H   LINE      CODE     ---       #633
      01000BF9H   LINE      CODE     ---       #635
      01000BFDH   LINE      CODE     ---       #636
      01000BFDH   LINE      CODE     ---       #638
      01000C02H   LINE      CODE     ---       #640
      01000C07H   LINE      CODE     ---       #642
      01000C0EH   LINE      CODE     ---       #644
      01000C13H   LINE      CODE     ---       #646
      01000C1EH   LINE      CODE     ---       #648
      01000C22H   LINE      CODE     ---       #649
      01000C22H   LINE      CODE     ---       #650
      01000C25H   LINE      CODE     ---       #652
      01000C25H   LINE      CODE     ---       #653
      01000C28H   LINE      CODE     ---       #655
      01000C4CH   LINE      CODE     ---       #657
      01000C56H   LINE      CODE     ---       #659
      01000C5AH   LINE      CODE     ---       #662
      01000C5FH   LINE      CODE     ---       #664
      01000C64H   LINE      CODE     ---       #665
      01000C64H   LINE      CODE     ---       #666
      01000C64H   LINE      CODE     ---       #667
      01000C67H   LINE      CODE     ---       #669
      01000C67H   LINE      CODE     ---       #670
      01000C6BH   LINE      CODE     ---       #671
      01000C6BH   LINE      CODE     ---       #673
      01000C8FH   LINE      CODE     ---       #675
LX51 LINKER/LOCATER V3.64                                                             01/15/2014  19:23:23  PAGE 38


      01000C99H   LINE      CODE     ---       #677
      01000C9DH   LINE      CODE     ---       #678
      01000C9DH   LINE      CODE     ---       #679
      01000C9FH   LINE      CODE     ---       #681
      01000C9FH   LINE      CODE     ---       #682
      01000CA6H   LINE      CODE     ---       #683
      01000CA6H   LINE      CODE     ---       #684
      01000CA9H   LINE      CODE     ---       #685
      01000CABH   LINE      CODE     ---       #687
      01000CB4H   LINE      CODE     ---       #689
      01000CB4H   LINE      CODE     ---       #691
      01000CB7H   LINE      CODE     ---       #693
      01000CBCH   LINE      CODE     ---       #694
      01000CBCH   LINE      CODE     ---       #695
      01000CBEH   LINE      CODE     ---       #697
      01000CBEH   LINE      CODE     ---       #698
      01000CC1H   LINE      CODE     ---       #699
      01000CC3H   LINE      CODE     ---       #700
      01000CCCH   LINE      CODE     ---       #701
      01000CCCH   LINE      CODE     ---       #703
      01000CCCH   LINE      CODE     ---       #705
      01000CCCH   LINE      CODE     ---       #707
      01000CCCH   LINE      CODE     ---       #708
      01000CCCH   LINE      CODE     ---       #710
      01000CCCH   LINE      CODE     ---       #711
      01000CCEH   LINE      CODE     ---       #731
      01000CCEH   LINE      CODE     ---       #732
      01000CD2H   LINE      CODE     ---       #733
      01000CD2H   LINE      CODE     ---       #735
      01000CD7H   LINE      CODE     ---       #737
      01000CDCH   LINE      CODE     ---       #739
      01000CE3H   LINE      CODE     ---       #741
      01000CE8H   LINE      CODE     ---       #743
      01000CF3H   LINE      CODE     ---       #745
      01000CF7H   LINE      CODE     ---       #746
      01000CFAH   LINE      CODE     ---       #747
      01000CFBH   LINE      CODE     ---       #749
      01000CFBH   LINE      CODE     ---       #750
      01000CFEH   LINE      CODE     ---       #751
      01000D00H   LINE      CODE     ---       #752
      01000D09H   LINE      CODE     ---       #753
      01000D09H   LINE      CODE     ---       #755
      01000D0CH   LINE      CODE     ---       #757
      01000D17H   LINE      CODE     ---       #759
      01000D1BH   LINE      CODE     ---       #760
      01000D1EH   LINE      CODE     ---       #762
      01000D23H   LINE      CODE     ---       #763
      01000D23H   LINE      CODE     ---       #765
      01000D23H   LINE      CODE     ---       #767
      01000D26H   LINE      CODE     ---       #769
      01000D2AH   LINE      CODE     ---       #772
      01000D2FH   LINE      CODE     ---       #775
      01000D32H   LINE      CODE     ---       #776
      01000D32H   LINE      CODE     ---       #778
      01000D32H   LINE      CODE     ---       #780
      01000D32H   LINE      CODE     ---       #783
      01000D36H   LINE      CODE     ---       #803
      01000D39H   LINE      CODE     ---       #804
      01000D39H   LINE      CODE     ---       #807
      01000D39H   LINE      CODE     ---       #808
      01000D3EH   LINE      CODE     ---       #810
      01000D45H   LINE      CODE     ---       #811
      01000D4AH   LINE      CODE     ---       #813
      01000D4FH   LINE      CODE     ---       #814
      01000D54H   LINE      CODE     ---       #815
LX51 LINKER/LOCATER V3.64                                                             01/15/2014  19:23:23  PAGE 39


      01000D57H   LINE      CODE     ---       #816
      01000D5AH   LINE      CODE     ---       #817
      01000D5CH   LINE      CODE     ---       #823
      01000D5CH   LINE      CODE     ---       #824
      01000D5CH   LINE      CODE     ---       #825
      01000D5CH   LINE      CODE     ---       #826
      01000D5CH   LINE      CODE     ---       #827
      ---         BLOCKEND  ---      ---       LVL=0
      01002636H   BLOCK     ---      ---       LVL=1
      01002636H   BLOCK     ---      ---       LVL=2
      00000007H   SYMBOL    DATA     BYTE      temp8
      ---         BLOCKEND  ---      ---       LVL=1
      01002636H   LINE      CODE     ---       #855
      01002636H   LINE      CODE     ---       #856
      01002636H   LINE      CODE     ---       #859
      0100263EH   LINE      CODE     ---       #860
      01002642H   LINE      CODE     ---       #862
      01002646H   LINE      CODE     ---       #863
      01002648H   LINE      CODE     ---       #864
      0100264BH   LINE      CODE     ---       #866
      0100264BH   LINE      CODE     ---       #867
      ---         BLOCKEND  ---      ---       LVL=0
      010026CBH   BLOCK     ---      ---       LVL=1
      010026CBH   LINE      CODE     ---       #881
      010026CBH   LINE      CODE     ---       #882
      010026CBH   LINE      CODE     ---       #884
      010026CEH   LINE      CODE     ---       #886
      010026D5H   LINE      CODE     ---       #888
      ---         BLOCKEND  ---      ---       LVL=0
      01002216H   BLOCK     ---      ---       LVL=1
      01002216H   BLOCK     ---      ---       LVL=2
      00000007H   SYMBOL    DATA     BYTE      mask
      00000037H   SYMBOL    DATA     BYTE      n
      ---         BLOCKEND  ---      ---       LVL=1
      01002216H   LINE      CODE     ---       #909
      01002216H   LINE      CODE     ---       #910
      01002216H   LINE      CODE     ---       #914
      01002219H   LINE      CODE     ---       #917
      0100221BH   LINE      CODE     ---       #918
      01002228H   LINE      CODE     ---       #921
      01002228H   LINE      CODE     ---       #922
      0100222AH   LINE      CODE     ---       #923
      0100222DH   LINE      CODE     ---       #924
      01002231H   LINE      CODE     ---       #925
      01002236H   LINE      CODE     ---       #928
      0100223DH   LINE      CODE     ---       #931
      01002242H   LINE      CODE     ---       #932
      0100224EH   LINE      CODE     ---       #934
      01002253H   LINE      CODE     ---       #936
      01002256H   LINE      CODE     ---       #937
      ---         BLOCKEND  ---      ---       LVL=0
      01001F0AH   BLOCK     ---      ---       LVL=1
      00000034H   SYMBOL    DATA     BYTE      tx
      01001F0CH   BLOCK     ---      ---       LVL=2
      00000035H   SYMBOL    DATA     BYTE      next
      00000036H   SYMBOL    DATA     BYTE      temp8
      ---         BLOCKEND  ---      ---       LVL=1
      01001F0AH   LINE      CODE     ---       #959
      01001F0CH   LINE      CODE     ---       #960
      01001F0CH   LINE      CODE     ---       #968
      01001F0FH   LINE      CODE     ---       #977
      01001F15H   LINE      CODE     ---       #978
      01001F15H   LINE      CODE     ---       #979
      01001F19H   LINE      CODE     ---       #980
      01001F1BH   LINE      CODE     ---       #982
LX51 LINKER/LOCATER V3.64                                                             01/15/2014  19:23:23  PAGE 40


      01001F1BH   LINE      CODE     ---       #983
      01001F21H   LINE      CODE     ---       #984
      01001F21H   LINE      CODE     ---       #986
      01001F25H   LINE      CODE     ---       #987
      01001F25H   LINE      CODE     ---       #989
      01001F29H   LINE      CODE     ---       #990
      01001F2DH   LINE      CODE     ---       #992
      01001F30H   LINE      CODE     ---       #993
      01001F30H   LINE      CODE     ---       #995
      01001F36H   LINE      CODE     ---       #996
      01001F36H   LINE      CODE     ---       #999
      01001F3DH   LINE      CODE     ---       #1000
      01001F40H   LINE      CODE     ---       #1001
      01001F47H   LINE      CODE     ---       #1002
      01001F4AH   LINE      CODE     ---       #1003
      01001F51H   LINE      CODE     ---       #1007
      01001F56H   LINE      CODE     ---       #1009
      01001F5CH   LINE      CODE     ---       #1010
      01001F5CH   LINE      CODE     ---       #1012
      01001F5FH   LINE      CODE     ---       #1014
      01001F6AH   LINE      CODE     ---       #1015
      01001F6DH   LINE      CODE     ---       #1016
      01001F6DH   LINE      CODE     ---       #1030
      01001F72H   LINE      CODE     ---       #1032
      01001F76H   LINE      CODE     ---       #1033
      01001F78H   LINE      CODE     ---       #1034
      01001F79H   LINE      CODE     ---       #1037
      01001F79H   LINE      CODE     ---       #1040
      01001F7EH   LINE      CODE     ---       #1062
      01001F82H   LINE      CODE     ---       #1064
      01001F85H   LINE      CODE     ---       #1065
      01001F85H   LINE      CODE     ---       #1066
      ---         BLOCKEND  ---      ---       LVL=0
      01002563H   BLOCK     ---      ---       LVL=1
      00000007H   SYMBOL    DATA     BYTE      mask
      01002563H   LINE      CODE     ---       #1089
      01002563H   LINE      CODE     ---       #1090
      01002563H   LINE      CODE     ---       #1092
      01002566H   LINE      CODE     ---       #1095
      0100256DH   LINE      CODE     ---       #1096
      0100256DH   LINE      CODE     ---       #1097
      01002578H   LINE      CODE     ---       #1098
      0100257EH   LINE      CODE     ---       #1099
      0100257EH   LINE      CODE     ---       #1100
      ---         BLOCKEND  ---      ---       LVL=0
      0100261DH   BLOCK     ---      ---       LVL=1
      00000005H   SYMBOL    DATA     BYTE      value
      0100261DH   LINE      CODE     ---       #1121
      0100261FH   LINE      CODE     ---       #1122
      0100261FH   LINE      CODE     ---       #1123
      01002625H   LINE      CODE     ---       #1124
      01002625H   LINE      CODE     ---       #1125
      01002628H   LINE      CODE     ---       #1126
      01002628H   LINE      CODE     ---       #1128
      0100262EH   LINE      CODE     ---       #1129
      01002631H   LINE      CODE     ---       #1131
      ---         BLOCKEND  ---      ---       LVL=0
      0100241BH   BLOCK     ---      ---       LVL=1
      ---         BLOCKEND  ---      ---       LVL=0
      01002421H   BLOCK     ---      ---       LVL=1
      00000005H   SYMBOL    DATA     BYTE      value
      01002421H   LINE      CODE     ---       #1149
      01002423H   LINE      CODE     ---       #1150
      01002423H   LINE      CODE     ---       #1151
      01002429H   LINE      CODE     ---       #1152
LX51 LINKER/LOCATER V3.64                                                             01/15/2014  19:23:23  PAGE 41


      01002429H   LINE      CODE     ---       #1153
      0100242CH   LINE      CODE     ---       #1154
      0100242EH   LINE      CODE     ---       #1155
      0100242EH   LINE      CODE     ---       #1156
      01002434H   LINE      CODE     ---       #1157
      01002437H   LINE      CODE     ---       #1159
      0100243DH   LINE      CODE     ---       #1160
      01002440H   LINE      CODE     ---       #1162
      ---         BLOCKEND  ---      ---       LVL=0

      ---         MODULE    ---      ---       MAIN
      0100270EH   PUBLIC    CODE     ---       MAIN
      00000000H   SYMBOL    CODE     WORD      _ICE_DUMMY_
      0100270EH   BLOCK     ---      ---       LVL=1
      0100270EH   LINE      CODE     ---       #39
      0100270EH   LINE      CODE     ---       #40
      0100270EH   LINE      CODE     ---       #42
      01002711H   LINE      CODE     ---       #45
      01002711H   LINE      CODE     ---       #46
      01002711H   LINE      CODE     ---       #48
      01002714H   LINE      CODE     ---       #49
      ---         BLOCKEND  ---      ---       LVL=0

      ---         MODULE    ---      ---       P2P_DEMO_FWD_MENU
      02000099H   PUBLIC    XDATA    ---       LCD_DATA
      00000000H   SYMBOL    CODE     WORD      _ICE_DUMMY_

      ---         MODULE    ---      ---       P2P_DEMO_FWD_NODE
      02000071H   PUBLIC    XDATA    ---       PRINTBUF
      0200006CH   PUBLIC    XDATA    ---       ABRFPAYLOAD
      0200006AH   PUBLIC    XDATA    WORD      WPACKETCOUNTER
      02000069H   PUBLIC    XDATA    BYTE      DEMO_SR
      02000068H   PUBLIC    XDATA    BYTE      BPACKETLENGTH
      01001FF9H   PUBLIC    CODE     ---       VP2P_DEMO_FWDPACKET
      01001B05H   PUBLIC    CODE     ---       VP2P_DEMO_FWDINIT
      01002367H   PUBLIC    CODE     ---       STATEMACHINE
      01002704H   PUBLIC    CODE     ---       STATEMACHINE_INIT
      00000000H   SYMBOL    CODE     WORD      _ICE_DUMMY_
      01002704H   BLOCK     ---      ---       LVL=1
      01002704H   LINE      CODE     ---       #49
      01002704H   LINE      CODE     ---       #50
      01002704H   LINE      CODE     ---       #52
      01002707H   LINE      CODE     ---       #54
      0100270DH   LINE      CODE     ---       #55
      ---         BLOCKEND  ---      ---       LVL=0
      01002367H   BLOCK     ---      ---       LVL=1
      01002367H   LINE      CODE     ---       #59
      01002367H   LINE      CODE     ---       #60
      01002367H   LINE      CODE     ---       #62
      01002373H   LINE      CODE     ---       #63
      01002373H   LINE      CODE     ---       #64
      01002373H   LINE      CODE     ---       #66
      01002376H   LINE      CODE     ---       #68
      01002378H   LINE      CODE     ---       #70
      0100237BH   LINE      CODE     ---       #72
      0100237EH   LINE      CODE     ---       #74
      01002380H   LINE      CODE     ---       #75
      01002382H   LINE      CODE     ---       #77
      01002385H   LINE      CODE     ---       #79
      0100238BH   LINE      CODE     ---       #80
      0100238CH   LINE      CODE     ---       #82
      0100238CH   LINE      CODE     ---       #84
      0100238FH   LINE      CODE     ---       #85
      0100238FH   LINE      CODE     ---       #86
      01002391H   LINE      CODE     ---       #88
LX51 LINKER/LOCATER V3.64                                                             01/15/2014  19:23:23  PAGE 42


      01002394H   LINE      CODE     ---       #89
      01002394H   LINE      CODE     ---       #90
      01002394H   LINE      CODE     ---       #92
      01002394H   LINE      CODE     ---       #93
      01002394H   LINE      CODE     ---       #94
      01002394H   LINE      CODE     ---       #95
      ---         BLOCKEND  ---      ---       LVL=0
      01001B05H   BLOCK     ---      ---       LVL=1
      01001B05H   LINE      CODE     ---       #99
      01001B05H   LINE      CODE     ---       #100
      01001B05H   LINE      CODE     ---       #102
      01001B0CH   LINE      CODE     ---       #103
      01001B13H   LINE      CODE     ---       #104
      01001B1AH   LINE      CODE     ---       #110
      01001B1DH   LINE      CODE     ---       #112
      01001B1FH   LINE      CODE     ---       #114
      01001B26H   LINE      CODE     ---       #116
      01001B2DH   LINE      CODE     ---       #118
      01001B3FH   LINE      CODE     ---       #123
      01001B46H   LINE      CODE     ---       #125
      01001B4DH   LINE      CODE     ---       #126
      01001B54H   LINE      CODE     ---       #127
      01001B5BH   LINE      CODE     ---       #128
      01001B62H   LINE      CODE     ---       #129
      01001B69H   LINE      CODE     ---       #130
      01001B70H   LINE      CODE     ---       #131
      01001B77H   LINE      CODE     ---       #132
      01001B7EH   LINE      CODE     ---       #133
      01001B85H   LINE      CODE     ---       #134
      01001B87H   LINE      CODE     ---       #137
      01001B8AH   LINE      CODE     ---       #139
      01001B8DH   LINE      CODE     ---       #141
      01001B8FH   LINE      CODE     ---       #142
      01001B91H   LINE      CODE     ---       #144
      01001B94H   LINE      CODE     ---       #150
      01001B9DH   LINE      CODE     ---       #151
      01001BA6H   LINE      CODE     ---       #154
      01001BA9H   LINE      CODE     ---       #156
      01001BABH   LINE      CODE     ---       #157
      ---         BLOCKEND  ---      ---       LVL=0
      01001FF9H   BLOCK     ---      ---       LVL=1
      01001FF9H   BLOCK     ---      ---       LVL=2
      00000082H   SYMBOL    DATA     WORD      wWaitCnt
      ---         BLOCKEND  ---      ---       LVL=1
      01001FF9H   LINE      CODE     ---       #160
      01001FF9H   LINE      CODE     ---       #161
      01001FF9H   LINE      CODE     ---       #165
      01002004H   LINE      CODE     ---       #167
      01002015H   LINE      CODE     ---       #173
      01002022H   LINE      CODE     ---       #180
      01002035H   LINE      CODE     ---       #182
      01002037H   LINE      CODE     ---       #183
      01002050H   LINE      CODE     ---       #189
      ---         BLOCKEND  ---      ---       LVL=0

      ---         MODULE    ---      ---       P2P_DEMO_FWD_CALLBACKS
      00000022H.0 PUBLIC    BIT      BIT       FEZMACPRO_PACKETRECEIVED
      00000021H.7 PUBLIC    BIT      BIT       FEZMACPRO_ACKTIMEOUT
      00000021H.6 PUBLIC    BIT      BIT       FEZMACPRO_PACKETSENT
      00000021H.5 PUBLIC    BIT      BIT       FEZMACPRO_PACKETFORWARDING
      00000021H.4 PUBLIC    BIT      BIT       FEZMACPRO_LFTIMEREXPIRED
      00000021H.3 PUBLIC    BIT      BIT       FEZMACPRO_SYNCWORDRECEIVED
      00000021H.2 PUBLIC    BIT      BIT       FEZMACPRO_CRCERROR
      00000021H.1 PUBLIC    BIT      BIT       FEZMACPRO_PACKETDISCARDED
      00000021H.0 PUBLIC    BIT      BIT       FEZMACPRO_STATEERRORENTERED
LX51 LINKER/LOCATER V3.64                                                             01/15/2014  19:23:23  PAGE 43


      00000020H.7 PUBLIC    BIT      BIT       FEZMACPRO_ACKSENDING
      00000020H.6 PUBLIC    BIT      BIT       FEZMACPRO_STATEIDLEENTERED
      00000020H.5 PUBLIC    BIT      BIT       FEZMACPRO_LBTTIMEOUT
      00000020H.4 PUBLIC    BIT      BIT       FEZMACPRO_STATESLEEPENTERED
      00000020H.3 PUBLIC    BIT      BIT       FEZMACPRO_STATEWAKEUPENTERED
      00000020H.2 PUBLIC    BIT      BIT       FEZMACPRO_STATETXENTERED
      00000020H.1 PUBLIC    BIT      BIT       FEZMACPRO_STATERXENTERED
      00000020H.0 PUBLIC    BIT      BIT       FEZMACPRO_LOWBATTERY
      0100269CH   PUBLIC    CODE     ---       EZMACPRO_ACKSENDING
      01002742H   PUBLIC    CODE     ---       EZMACPRO_CRCERROR
      0100273FH   PUBLIC    CODE     ---       EZMACPRO_ACKTIMEOUT
      0100273CH   PUBLIC    CODE     ---       EZMACPRO_LBTTIMEOUT
      01002739H   PUBLIC    CODE     ---       EZMACPRO_PACKETSENT
      01002736H   PUBLIC    CODE     ---       EZMACPRO_PACKETFORWARDING
      01002716H   PUBLIC    CODE     ---       _EZMACPRO_PACKETRECEIVED
      01002733H   PUBLIC    CODE     ---       EZMACPRO_PACKETDISCARDED
      01002730H   PUBLIC    CODE     ---       EZMACPRO_SYNCWORDRECEIVED
      0100272DH   PUBLIC    CODE     ---       EZMACPRO_LOWBATTERY
      0100272AH   PUBLIC    CODE     ---       EZMACPRO_LFTIMEREXPIRED
      01002727H   PUBLIC    CODE     ---       EZMACPRO_STATEERRORENTERED
      01002724H   PUBLIC    CODE     ---       EZMACPRO_STATERXENTERED
      01002721H   PUBLIC    CODE     ---       EZMACPRO_STATEIDLEENTERED
      0100271EH   PUBLIC    CODE     ---       EZMACPRO_STATESLEEPENTERED
      0100271BH   PUBLIC    CODE     ---       EZMACPRO_STATEWAKEUPENTERED
      00000000H   SYMBOL    CODE     WORD      _ICE_DUMMY_
      0100271BH   BLOCK     ---      ---       LVL=1
      0100271BH   LINE      CODE     ---       #53
      0100271BH   LINE      CODE     ---       #54
      0100271BH   LINE      CODE     ---       #55
      0100271DH   LINE      CODE     ---       #56
      ---         BLOCKEND  ---      ---       LVL=0
      0100271EH   BLOCK     ---      ---       LVL=1
      0100271EH   LINE      CODE     ---       #61
      0100271EH   LINE      CODE     ---       #62
      0100271EH   LINE      CODE     ---       #63
      01002720H   LINE      CODE     ---       #64
      ---         BLOCKEND  ---      ---       LVL=0
      01002721H   BLOCK     ---      ---       LVL=1
      01002721H   LINE      CODE     ---       #69
      01002721H   LINE      CODE     ---       #70
      01002721H   LINE      CODE     ---       #71
      01002723H   LINE      CODE     ---       #72
      ---         BLOCKEND  ---      ---       LVL=0
      01002724H   BLOCK     ---      ---       LVL=1
      01002724H   LINE      CODE     ---       #77
      01002724H   LINE      CODE     ---       #78
      01002724H   LINE      CODE     ---       #79
      01002726H   LINE      CODE     ---       #80
      ---         BLOCKEND  ---      ---       LVL=0
      00000000H   BLOCK     ---      ---       LVL=1
      ---         BLOCKEND  ---      ---       LVL=0
      01002727H   BLOCK     ---      ---       LVL=1
      01002727H   LINE      CODE     ---       #93
      01002727H   LINE      CODE     ---       #94
      01002727H   LINE      CODE     ---       #95
      01002729H   LINE      CODE     ---       #96
      ---         BLOCKEND  ---      ---       LVL=0
      0100272AH   BLOCK     ---      ---       LVL=1
      0100272AH   LINE      CODE     ---       #99
      0100272AH   LINE      CODE     ---       #100
      0100272AH   LINE      CODE     ---       #101
      0100272CH   LINE      CODE     ---       #102
      ---         BLOCKEND  ---      ---       LVL=0
      0100272DH   BLOCK     ---      ---       LVL=1
      0100272DH   LINE      CODE     ---       #105
LX51 LINKER/LOCATER V3.64                                                             01/15/2014  19:23:23  PAGE 44


      0100272DH   LINE      CODE     ---       #106
      0100272DH   LINE      CODE     ---       #107
      0100272FH   LINE      CODE     ---       #108
      ---         BLOCKEND  ---      ---       LVL=0
      01002730H   BLOCK     ---      ---       LVL=1
      01002730H   LINE      CODE     ---       #112
      01002730H   LINE      CODE     ---       #113
      01002730H   LINE      CODE     ---       #114
      01002732H   LINE      CODE     ---       #115
      ---         BLOCKEND  ---      ---       LVL=0
      01002733H   BLOCK     ---      ---       LVL=1
      01002733H   LINE      CODE     ---       #120
      01002733H   LINE      CODE     ---       #121
      01002733H   LINE      CODE     ---       #122
      01002735H   LINE      CODE     ---       #123
      ---         BLOCKEND  ---      ---       LVL=0
      01002716H   BLOCK     ---      ---       LVL=1
      00000007H   SYMBOL    DATA     BYTE      rssi
      01002716H   BLOCK     ---      ---       LVL=2
      00000028H   SYMBOL    DATA     BYTE      rssiVal
      ---         BLOCKEND  ---      ---       LVL=1
      01002716H   LINE      CODE     ---       #128
      01002716H   LINE      CODE     ---       #129
      01002716H   LINE      CODE     ---       #132
      01002718H   LINE      CODE     ---       #133
      0100271AH   LINE      CODE     ---       #134
      ---         BLOCKEND  ---      ---       LVL=0
      01002736H   BLOCK     ---      ---       LVL=1
      01002736H   LINE      CODE     ---       #139
      01002736H   LINE      CODE     ---       #140
      01002736H   LINE      CODE     ---       #141
      01002738H   LINE      CODE     ---       #142
      ---         BLOCKEND  ---      ---       LVL=0
      01002739H   BLOCK     ---      ---       LVL=1
      01002739H   LINE      CODE     ---       #147
      01002739H   LINE      CODE     ---       #148
      01002739H   LINE      CODE     ---       #149
      0100273BH   LINE      CODE     ---       #150
      ---         BLOCKEND  ---      ---       LVL=0
      0100273CH   BLOCK     ---      ---       LVL=1
      0100273CH   LINE      CODE     ---       #155
      0100273CH   LINE      CODE     ---       #156
      0100273CH   LINE      CODE     ---       #157
      0100273EH   LINE      CODE     ---       #158
      ---         BLOCKEND  ---      ---       LVL=0
      0100273FH   BLOCK     ---      ---       LVL=1
      0100273FH   LINE      CODE     ---       #164
      0100273FH   LINE      CODE     ---       #165
      0100273FH   LINE      CODE     ---       #166
      01002741H   LINE      CODE     ---       #167
      ---         BLOCKEND  ---      ---       LVL=0
      01002742H   BLOCK     ---      ---       LVL=1
      01002742H   LINE      CODE     ---       #172
      01002742H   LINE      CODE     ---       #173
      01002742H   LINE      CODE     ---       #174
      01002744H   LINE      CODE     ---       #175
      ---         BLOCKEND  ---      ---       LVL=0
      0100269CH   BLOCK     ---      ---       LVL=1
      0100269CH   BLOCK     ---      ---       LVL=2
      020000AFH   SYMBOL    XDATA    BYTE      i
      ---         BLOCKEND  ---      ---       LVL=1
      0100269CH   LINE      CODE     ---       #180
      0100269CH   LINE      CODE     ---       #181
      0100269CH   LINE      CODE     ---       #184
      0100269EH   LINE      CODE     ---       #186
LX51 LINKER/LOCATER V3.64                                                             01/15/2014  19:23:23  PAGE 45


      010026A4H   LINE      CODE     ---       #187
      ---         BLOCKEND  ---      ---       LVL=0

      ---         MODULE    ---      ---       BSP
      0000000CH   PUBLIC    DATA     WORD      EZMACPROTIMERMSB
      0000000AH   PUBLIC    DATA     WORD      TIMER0MSB_SAVE
      00000008H   PUBLIC    DATA     WORD      TIMER0MSB
      01002257H   PUBLIC    CODE     ---       RFSETTINGSB1
      0100268AH   PUBLIC    CODE     ---       SYSTEMCLKINIT
      0100006CH   PUBLIC    CODE     ---       INTERRUPTINIT
      01002745H   PUBLIC    CODE     ---       LEDINIT
      01002142H   PUBLIC    CODE     ---       PORTINIT
      01002662H   PUBLIC    CODE     ---       BOARDINIT
      01002502H   PUBLIC    CODE     ---       UART0INIT
      010023EFH   PUBLIC    CODE     ---       _TIMERINTTIMEOUT
      010023C3H   PUBLIC    CODE     ---       _EXTINTTIMEOUT
      0100218EH   PUBLIC    CODE     ---       _MACTIMEOUT
      0100264CH   PUBLIC    CODE     ---       TIMER3INIT
      01002059H   PUBLIC    CODE     ---       _DELAY_MS
      010025D0H   PUBLIC    CODE     ---       _TIMERINTSPIREADREG
      010025B5H   PUBLIC    CODE     ---       _TIMERINTSPIWRITEREG
      01002337H   PUBLIC    CODE     ---       _EXTINTSPIREADFIFO
      01002395H   PUBLIC    CODE     ---       _EXTINTSPIWRITEFIFO
      0100259AH   PUBLIC    CODE     ---       _EXTINTSPIREADREG
      0100257FH   PUBLIC    CODE     ---       _EXTINTSPIWRITEREG
      010024B8H   PUBLIC    CODE     ---       _MACSPIREADREG
      01002492H   PUBLIC    CODE     ---       _MACSPIWRITEREG
      010026DAH   PUBLIC    CODE     ---       SPI1INIT
      00000000H   SYMBOL    CODE     WORD      _ICE_DUMMY_
      00000000H   BLOCK     ---      ---       LVL=1
      ---         BLOCKEND  ---      ---       LVL=0
      010026DAH   BLOCK     ---      ---       LVL=1
      010026DAH   LINE      CODE     ---       #21
      010026DAH   LINE      CODE     ---       #22
      010026DAH   LINE      CODE     ---       #23
      010026DDH   LINE      CODE     ---       #24
      010026E0H   LINE      CODE     ---       #25
      010026E3H   LINE      CODE     ---       #26
      010026E6H   LINE      CODE     ---       #27
      010026E8H   LINE      CODE     ---       #28
      ---         BLOCKEND  ---      ---       LVL=0
      01002492H   BLOCK     ---      ---       LVL=1
      00000007H   SYMBOL    DATA     BYTE      reg
      00000005H   SYMBOL    DATA     BYTE      value
      01002492H   BLOCK     ---      ---       LVL=2
      00000006H   SYMBOL    DATA     BYTE      restoreInts
      ---         BLOCKEND  ---      ---       LVL=1
      01002492H   LINE      CODE     ---       #64
      01002492H   LINE      CODE     ---       #65
      01002492H   LINE      CODE     ---       #69
      01002497H   LINE      CODE     ---       #70
      0100249AH   LINE      CODE     ---       #73
      0100249CH   LINE      CODE     ---       #74
      0100249EH   LINE      CODE     ---       #75
      010024A3H   LINE      CODE     ---       #76
      010024A6H   LINE      CODE     ---       #77
      010024A8H   LINE      CODE     ---       #78
      010024ABH   LINE      CODE     ---       #79
      010024B0H   LINE      CODE     ---       #81
      010024B2H   LINE      CODE     ---       #82
      010024B4H   LINE      CODE     ---       #85
      010024B7H   LINE      CODE     ---       #86
      ---         BLOCKEND  ---      ---       LVL=0
      010024B8H   BLOCK     ---      ---       LVL=1
      00000007H   SYMBOL    DATA     BYTE      reg
LX51 LINKER/LOCATER V3.64                                                             01/15/2014  19:23:23  PAGE 46


      010024B8H   BLOCK     ---      ---       LVL=2
      00000007H   SYMBOL    DATA     BYTE      value
      00000006H   SYMBOL    DATA     BYTE      restoreInts
      ---         BLOCKEND  ---      ---       LVL=1
      010024B8H   LINE      CODE     ---       #96
      010024B8H   LINE      CODE     ---       #97
      010024B8H   LINE      CODE     ---       #102
      010024BDH   LINE      CODE     ---       #103
      010024C0H   LINE      CODE     ---       #106
      010024C2H   LINE      CODE     ---       #107
      010024C4H   LINE      CODE     ---       #108
      010024C6H   LINE      CODE     ---       #109
      010024C9H   LINE      CODE     ---       #110
      010024CCH   LINE      CODE     ---       #111
      010024CFH   LINE      CODE     ---       #112
      010024D4H   LINE      CODE     ---       #113
      010024D6H   LINE      CODE     ---       #114
      010024D8H   LINE      CODE     ---       #115
      010024DAH   LINE      CODE     ---       #118
      010024DDH   LINE      CODE     ---       #120
      010024DDH   LINE      CODE     ---       #121
      ---         BLOCKEND  ---      ---       LVL=0
      00000000H   BLOCK     ---      ---       LVL=1
      00000007H   SYMBOL    DATA     BYTE      n
      00000004H   SYMBOL    DATA     ---       buffer
      00000000H   BLOCK     ---      ---       LVL=2
      00000006H   SYMBOL    DATA     BYTE      restoreInts
      ---         BLOCKEND  ---      ---       LVL=1
      ---         BLOCKEND  ---      ---       LVL=0
      0100257FH   BLOCK     ---      ---       LVL=1
      00000007H   SYMBOL    DATA     BYTE      macReg
      00000005H   SYMBOL    DATA     BYTE      value
      0100257FH   LINE      CODE     ---       #200
      0100257FH   LINE      CODE     ---       #201
      0100257FH   LINE      CODE     ---       #202
      01002581H   LINE      CODE     ---       #203
      01002583H   LINE      CODE     ---       #204
      01002588H   LINE      CODE     ---       #205
      0100258BH   LINE      CODE     ---       #206
      0100258DH   LINE      CODE     ---       #207
      01002590H   LINE      CODE     ---       #208
      01002595H   LINE      CODE     ---       #210
      01002597H   LINE      CODE     ---       #211
      01002599H   LINE      CODE     ---       #212
      ---         BLOCKEND  ---      ---       LVL=0
      0100259AH   BLOCK     ---      ---       LVL=1
      00000007H   SYMBOL    DATA     BYTE      macReg
      0100259AH   BLOCK     ---      ---       LVL=2
      00000007H   SYMBOL    DATA     BYTE      value
      ---         BLOCKEND  ---      ---       LVL=1
      0100259AH   LINE      CODE     ---       #224
      0100259AH   LINE      CODE     ---       #225
      0100259AH   LINE      CODE     ---       #228
      0100259CH   LINE      CODE     ---       #229
      0100259EH   LINE      CODE     ---       #230
      010025A0H   LINE      CODE     ---       #231
      010025A3H   LINE      CODE     ---       #232
      010025A6H   LINE      CODE     ---       #233
      010025A9H   LINE      CODE     ---       #234
      010025AEH   LINE      CODE     ---       #235
      010025B0H   LINE      CODE     ---       #236
      010025B2H   LINE      CODE     ---       #237
      010025B4H   LINE      CODE     ---       #239
      010025B4H   LINE      CODE     ---       #240
      ---         BLOCKEND  ---      ---       LVL=0
LX51 LINKER/LOCATER V3.64                                                             01/15/2014  19:23:23  PAGE 47


      01002395H   BLOCK     ---      ---       LVL=1
      00000007H   SYMBOL    DATA     BYTE      n
      00000004H   SYMBOL    DATA     ---       buffer
      01002395H   LINE      CODE     ---       #257
      01002395H   LINE      CODE     ---       #258
      01002395H   LINE      CODE     ---       #259
      01002397H   LINE      CODE     ---       #260
      01002399H   LINE      CODE     ---       #261
      0100239CH   LINE      CODE     ---       #263
      010023A2H   LINE      CODE     ---       #264
      010023A2H   LINE      CODE     ---       #265
      010023A5H   LINE      CODE     ---       #266
      010023B4H   LINE      CODE     ---       #267
      010023B6H   LINE      CODE     ---       #269
      010023B9H   LINE      CODE     ---       #270
      010023BEH   LINE      CODE     ---       #272
      010023C0H   LINE      CODE     ---       #273
      010023C2H   LINE      CODE     ---       #274
      ---         BLOCKEND  ---      ---       LVL=0
      01002337H   BLOCK     ---      ---       LVL=1
      00000007H   SYMBOL    DATA     BYTE      n
      00000004H   SYMBOL    DATA     ---       buffer
      01002337H   LINE      CODE     ---       #292
      01002337H   LINE      CODE     ---       #293
      01002337H   LINE      CODE     ---       #294
      01002339H   LINE      CODE     ---       #295
      0100233BH   LINE      CODE     ---       #296
      0100233EH   LINE      CODE     ---       #297
      01002341H   LINE      CODE     ---       #298
      01002343H   LINE      CODE     ---       #300
      01002349H   LINE      CODE     ---       #301
      01002349H   LINE      CODE     ---       #302
      0100234BH   LINE      CODE     ---       #303
      0100234EH   LINE      CODE     ---       #304
      01002351H   LINE      CODE     ---       #305
      01002360H   LINE      CODE     ---       #306
      01002362H   LINE      CODE     ---       #308
      01002364H   LINE      CODE     ---       #309
      01002366H   LINE      CODE     ---       #310
      ---         BLOCKEND  ---      ---       LVL=0
      010025B5H   BLOCK     ---      ---       LVL=1
      00000007H   SYMBOL    DATA     BYTE      macReg
      00000005H   SYMBOL    DATA     BYTE      value
      010025B5H   LINE      CODE     ---       #352
      010025B5H   LINE      CODE     ---       #353
      010025B5H   LINE      CODE     ---       #354
      010025B7H   LINE      CODE     ---       #355
      010025B9H   LINE      CODE     ---       #356
      010025BEH   LINE      CODE     ---       #357
      010025C1H   LINE      CODE     ---       #358
      010025C3H   LINE      CODE     ---       #359
      010025C6H   LINE      CODE     ---       #360
      010025CBH   LINE      CODE     ---       #362
      010025CDH   LINE      CODE     ---       #363
      010025CFH   LINE      CODE     ---       #364
      ---         BLOCKEND  ---      ---       LVL=0
      010025D0H   BLOCK     ---      ---       LVL=1
      00000007H   SYMBOL    DATA     BYTE      macReg
      010025D0H   BLOCK     ---      ---       LVL=2
      00000007H   SYMBOL    DATA     BYTE      value
      ---         BLOCKEND  ---      ---       LVL=1
      010025D0H   LINE      CODE     ---       #377
      010025D0H   LINE      CODE     ---       #378
      010025D0H   LINE      CODE     ---       #381
      010025D2H   LINE      CODE     ---       #382
LX51 LINKER/LOCATER V3.64                                                             01/15/2014  19:23:23  PAGE 48


      010025D4H   LINE      CODE     ---       #383
      010025D6H   LINE      CODE     ---       #384
      010025D9H   LINE      CODE     ---       #385
      010025DCH   LINE      CODE     ---       #386
      010025DFH   LINE      CODE     ---       #387
      010025E4H   LINE      CODE     ---       #388
      010025E6H   LINE      CODE     ---       #389
      010025E8H   LINE      CODE     ---       #390
      010025EAH   LINE      CODE     ---       #392
      010025EAH   LINE      CODE     ---       #393
      ---         BLOCKEND  ---      ---       LVL=0
      00000000H   BLOCK     ---      ---       LVL=1
      00000006H   SYMBOL    DATA     WORD      ticks
      00000000H   BLOCK     ---      ---       LVL=2
      ---         BLOCKEND  ---      ---       LVL=1
      ---         BLOCKEND  ---      ---       LVL=0
      01002059H   BLOCK     ---      ---       LVL=1
      00000082H   SYMBOL    DATA     WORD      ticks
      0100205DH   BLOCK     ---      ---       LVL=2
      0000003DH   SYMBOL    DATA     DWORD     i
      ---         BLOCKEND  ---      ---       LVL=1
      01002059H   LINE      CODE     ---       #35
      0100205DH   LINE      CODE     ---       #36
      0100205DH   LINE      CODE     ---       #39
      01002068H   LINE      CODE     ---       #40
      0100209DH   LINE      CODE     ---       #41
      010020A7H   LINE      CODE     ---       #45
      ---         BLOCKEND  ---      ---       LVL=0
      00000000H   BLOCK     ---      ---       LVL=1
      ---         BLOCKEND  ---      ---       LVL=0
      00000000H   BLOCK     ---      ---       LVL=1
      ---         BLOCKEND  ---      ---       LVL=0
      0100264CH   BLOCK     ---      ---       LVL=1
      0100264CH   LINE      CODE     ---       #90
      0100264CH   LINE      CODE     ---       #91
      0100264CH   LINE      CODE     ---       #92
      0100264FH   LINE      CODE     ---       #93
      01002652H   LINE      CODE     ---       #94
      01002658H   LINE      CODE     ---       #95
      0100265EH   LINE      CODE     ---       #96
      01002661H   LINE      CODE     ---       #97
      ---         BLOCKEND  ---      ---       LVL=0
      00000000H   BLOCK     ---      ---       LVL=1
      00000004H   SYMBOL    DATA     DWORD     timeout
      00000000H   BLOCK     ---      ---       LVL=2
      ---         BLOCKEND  ---      ---       LVL=1
      ---         BLOCKEND  ---      ---       LVL=0
      00000000H   BLOCK     ---      ---       LVL=1
      ---         BLOCKEND  ---      ---       LVL=0
      00000000H   BLOCK     ---      ---       LVL=1
      00000006H   SYMBOL    DATA     WORD      timeout
      00000000H   BLOCK     ---      ---       LVL=2
      ---         BLOCKEND  ---      ---       LVL=1
      ---         BLOCKEND  ---      ---       LVL=0
      0100218EH   BLOCK     ---      ---       LVL=1
      0000003DH   SYMBOL    DATA     DWORD     longTime
      01002196H   BLOCK     ---      ---       LVL=2
      00000041H   SYMBOL    DATA     ---       time
      00000003H   SYMBOL    DATA     BYTE      restoreInts
      ---         BLOCKEND  ---      ---       LVL=1
      0100218EH   LINE      CODE     ---       #181
      01002196H   LINE      CODE     ---       #182
      01002196H   LINE      CODE     ---       #187
      0100219BH   LINE      CODE     ---       #188
      0100219DH   LINE      CODE     ---       #190
LX51 LINKER/LOCATER V3.64                                                             01/15/2014  19:23:23  PAGE 49


      010021A0H   LINE      CODE     ---       #191
      010021A3H   LINE      CODE     ---       #193
      010021B2H   LINE      CODE     ---       #195
      010021B8H   LINE      CODE     ---       #197
      010021C3H   LINE      CODE     ---       #199
      010021C6H   LINE      CODE     ---       #200
      010021C9H   LINE      CODE     ---       #202
      010021CCH   LINE      CODE     ---       #203
      010021CFH   LINE      CODE     ---       #205
      010021D2H   LINE      CODE     ---       #206
      ---         BLOCKEND  ---      ---       LVL=0
      010023C3H   BLOCK     ---      ---       LVL=1
      00000004H   SYMBOL    DATA     DWORD     longTime
      010023C3H   BLOCK     ---      ---       LVL=2
      0000002BH   SYMBOL    DATA     ---       time
      ---         BLOCKEND  ---      ---       LVL=1
      010023C3H   LINE      CODE     ---       #229
      010023C3H   LINE      CODE     ---       #230
      010023C3H   LINE      CODE     ---       #233
      010023C6H   LINE      CODE     ---       #234
      010023C9H   LINE      CODE     ---       #236
      010023D1H   LINE      CODE     ---       #238
      010023D7H   LINE      CODE     ---       #240
      010023E2H   LINE      CODE     ---       #242
      010023E5H   LINE      CODE     ---       #243
      010023E8H   LINE      CODE     ---       #245
      010023EBH   LINE      CODE     ---       #246
      010023EEH   LINE      CODE     ---       #248
      ---         BLOCKEND  ---      ---       LVL=0
      010023EFH   BLOCK     ---      ---       LVL=1
      00000004H   SYMBOL    DATA     DWORD     longTime
      010023EFH   BLOCK     ---      ---       LVL=2
      00000037H   SYMBOL    DATA     ---       time
      ---         BLOCKEND  ---      ---       LVL=1
      010023EFH   LINE      CODE     ---       #275
      010023EFH   LINE      CODE     ---       #276
      010023EFH   LINE      CODE     ---       #279
      010023F2H   LINE      CODE     ---       #280
      010023F5H   LINE      CODE     ---       #282
      010023FDH   LINE      CODE     ---       #284
      01002403H   LINE      CODE     ---       #286
      0100240EH   LINE      CODE     ---       #288
      01002411H   LINE      CODE     ---       #289
      01002414H   LINE      CODE     ---       #291
      01002417H   LINE      CODE     ---       #292
      0100241AH   LINE      CODE     ---       #293
      ---         BLOCKEND  ---      ---       LVL=0
      01002502H   BLOCK     ---      ---       LVL=1
      01002502H   LINE      CODE     ---       #10
      01002502H   LINE      CODE     ---       #11
      01002502H   LINE      CODE     ---       #13
      01002505H   LINE      CODE     ---       #14
      01002508H   LINE      CODE     ---       #15
      0100250BH   LINE      CODE     ---       #19
      0100250EH   LINE      CODE     ---       #21
      01002511H   LINE      CODE     ---       #22
      01002514H   LINE      CODE     ---       #23
      01002517H   LINE      CODE     ---       #38
      0100251AH   LINE      CODE     ---       #39
      0100251DH   LINE      CODE     ---       #40
      01002520H   LINE      CODE     ---       #41
      01002522H   LINE      CODE     ---       #44
      01002524H   LINE      CODE     ---       #45
      ---         BLOCKEND  ---      ---       LVL=0
      01002662H   BLOCK     ---      ---       LVL=1
LX51 LINKER/LOCATER V3.64                                                             01/15/2014  19:23:23  PAGE 50


      01002662H   LINE      CODE     ---       #17
      01002662H   LINE      CODE     ---       #18
      01002662H   LINE      CODE     ---       #20
      01002665H   LINE      CODE     ---       #22
      01002668H   LINE      CODE     ---       #24
      0100266BH   LINE      CODE     ---       #26
      0100266EH   LINE      CODE     ---       #28
      01002671H   LINE      CODE     ---       #30
      01002674H   LINE      CODE     ---       #37
      ---         BLOCKEND  ---      ---       LVL=0
      01002142H   BLOCK     ---      ---       LVL=1
      01002142H   BLOCK     ---      ---       LVL=2
      00000006H   SYMBOL    DATA     WORD      delay
      ---         BLOCKEND  ---      ---       LVL=1
      01002142H   LINE      CODE     ---       #90
      01002142H   LINE      CODE     ---       #91
      01002142H   LINE      CODE     ---       #95
      01002145H   LINE      CODE     ---       #97
      01002148H   LINE      CODE     ---       #98
      0100214BH   LINE      CODE     ---       #99
      0100214EH   LINE      CODE     ---       #101
      01002151H   LINE      CODE     ---       #102
      01002154H   LINE      CODE     ---       #103
      01002157H   LINE      CODE     ---       #104
      0100215AH   LINE      CODE     ---       #105
      0100215DH   LINE      CODE     ---       #106
      01002160H   LINE      CODE     ---       #107
      01002163H   LINE      CODE     ---       #109
      01002166H   LINE      CODE     ---       #111
      01002169H   LINE      CODE     ---       #112
      0100216CH   LINE      CODE     ---       #113
      0100216FH   LINE      CODE     ---       #114
      01002172H   LINE      CODE     ---       #115
      01002175H   LINE      CODE     ---       #117
      01002178H   LINE      CODE     ---       #119
      0100217AH   LINE      CODE     ---       #122
      0100217DH   LINE      CODE     ---       #123
      01002181H   LINE      CODE     ---       #124
      0100218AH   LINE      CODE     ---       #125
      0100218DH   LINE      CODE     ---       #126
      ---         BLOCKEND  ---      ---       LVL=0
      01002745H   BLOCK     ---      ---       LVL=1
      01002745H   LINE      CODE     ---       #135
      01002745H   LINE      CODE     ---       #136
      01002745H   LINE      CODE     ---       #137
      01002747H   LINE      CODE     ---       #139
      ---         BLOCKEND  ---      ---       LVL=0
      0100006CH   BLOCK     ---      ---       LVL=1
      0100006CH   LINE      CODE     ---       #145
      0100006CH   LINE      CODE     ---       #146
      0100006CH   LINE      CODE     ---       #149
      0100006FH   LINE      CODE     ---       #150
      01000072H   LINE      CODE     ---       #151
      ---         BLOCKEND  ---      ---       LVL=0
      0100268AH   BLOCK     ---      ---       LVL=1
      0100268AH   LINE      CODE     ---       #157
      0100268AH   LINE      CODE     ---       #158
      0100268AH   LINE      CODE     ---       #160
      0100268DH   LINE      CODE     ---       #161
      01002690H   LINE      CODE     ---       #162
      01002693H   LINE      CODE     ---       #163
      01002696H   LINE      CODE     ---       #180
      0100269BH   LINE      CODE     ---       #181
      ---         BLOCKEND  ---      ---       LVL=0

LX51 LINKER/LOCATER V3.64                                                             01/15/2014  19:23:23  PAGE 51


      ---         MODULE    ---      ---       ?C_STARTUP
      01000000H   PUBLIC    CODE     ---       ?C_STARTUP
      000000E0H   SYMBOL    DATA     ---       ACC
      000000F0H   SYMBOL    DATA     ---       B
      00000083H   SYMBOL    DATA     ---       DPH
      00000082H   SYMBOL    DATA     ---       DPL
      00000000H   SYMBOL    NUMBER   ---       IBPSTACK
      00000100H   SYMBOL    NUMBER   ---       IBPSTACKTOP
      00000080H   SYMBOL    NUMBER   ---       IDATALEN
      01001C58H   SYMBOL    CODE     ---       IDATALOOP
      00000000H   SYMBOL    NUMBER   ---       PBPSTACK
      00000100H   SYMBOL    NUMBER   ---       PBPSTACKTOP
      000000D9H   SYMBOL    DATA     ---       PCA0MD
      00000000H   SYMBOL    NUMBER   ---       PDATALEN
      00000000H   SYMBOL    NUMBER   ---       PDATASTART
      00000000H   SYMBOL    NUMBER   ---       PPAGE
      00000000H   SYMBOL    NUMBER   ---       PPAGEENABLE
      000000A0H   SYMBOL    DATA     ---       PPAGE_SFR
      00000081H   SYMBOL    DATA     ---       SP
      01001C52H   SYMBOL    CODE     ---       STARTUP1
      01001C52H   SYMBOL    CODE     ---       WDT_DISABLE
      00000000H   SYMBOL    NUMBER   ---       XBPSTACK
      00001000H   SYMBOL    NUMBER   ---       XBPSTACKTOP
      00001000H   SYMBOL    NUMBER   ---       XDATALEN
      01001C63H   SYMBOL    CODE     ---       XDATALOOP
      00000000H   SYMBOL    NUMBER   ---       XDATASTART
      01000000H   LINE      CODE     ---       #129
      01001C52H   LINE      CODE     ---       #135
      01001C55H   LINE      CODE     ---       #138
      01001C57H   LINE      CODE     ---       #139
      01001C58H   LINE      CODE     ---       #140
      01001C59H   LINE      CODE     ---       #141
      01001C5BH   LINE      CODE     ---       #145
      01001C5EH   LINE      CODE     ---       #146
      01001C60H   LINE      CODE     ---       #150
      01001C62H   LINE      CODE     ---       #152
      01001C63H   LINE      CODE     ---       #153
      01001C64H   LINE      CODE     ---       #154
      01001C65H   LINE      CODE     ---       #155
      01001C67H   LINE      CODE     ---       #156
      01001C69H   LINE      CODE     ---       #190
      01001C6CH   LINE      CODE     ---       #201

      ---         MODULE    ---      ---       ?C_INIT
      01001CAAH   PUBLIC    CODE     ---       ?C_START

      ---         MODULE    ---      ---       ?C?COPY
      0100104AH   PUBLIC    CODE     ---       ?C?COPY

      ---         MODULE    ---      ---       ?C?CSTPTR
      01001070H   PUBLIC    CODE     ---       ?C?CSTPTR

      ---         MODULE    ---      ---       ?C?IMUL
      01001082H   PUBLIC    CODE     ---       ?C?IMUL

      ---         MODULE    ---      ---       ?C?LMUL
      01001094H   PUBLIC    CODE     ---       ?C?LMUL

      ---         MODULE    ---      ---       ?C?SLCMP
      010010E3H   PUBLIC    CODE     ---       ?C?SLCMP

      ---         MODULE    ---      ---       ?C?ULCMP
      010010F9H   PUBLIC    CODE     ---       ?C?ULCMP

      ---         MODULE    ---      ---       ?C?OFFXADD
LX51 LINKER/LOCATER V3.64                                                             01/15/2014  19:23:23  PAGE 52


      0100110AH   PUBLIC    CODE     ---       ?C?OFFXADD

      ---         MODULE    ---      ---       PRINTF
      0000003BH   PUBLIC    DATA     ---       ?_PRINTF517?BYTE
      0000003BH   PUBLIC    DATA     ---       ?_PRINTF?BYTE
      0000003BH   PUBLIC    DATA     ---       ?_SPRINTF517?BYTE
      0000003BH   PUBLIC    DATA     ---       ?_SPRINTF?BYTE
      01000574H   PUBLIC    CODE     ---       _PRINTF
      01000574H   PUBLIC    CODE     ---       _PRINTF517
      0100056EH   PUBLIC    CODE     ---       _SPRINTF
      0100056EH   PUBLIC    CODE     ---       _SPRINTF517

      ---         MODULE    ---      ---       ATOI
      01001A57H   PUBLIC    CODE     ---       _ATOI

      ---         MODULE    ---      ---       ?C?CLDPTR
      01001116H   PUBLIC    CODE     ---       ?C?CLDPTR

      ---         MODULE    ---      ---       ?C?CLDOPTR
      0100112FH   PUBLIC    CODE     ---       ?C?CLDOPTR

      ---         MODULE    ---      ---       ?C?PLDIIDATA
      0100115CH   PUBLIC    CODE     ---       ?C?PLDIIDATA

      ---         MODULE    ---      ---       ?C?CCASE
      0100116CH   PUBLIC    CODE     ---       ?C?CCASE

      ---         MODULE    ---      ---       PUTCHAR
      01002445H   PUBLIC    CODE     ---       _PUTCHAR

      ---         MODULE    ---      ---       ISDIGIT
      010026E9H   PUBLIC    CODE     ---       _ISDIGIT

      ---         MODULE    ---      ---       ISSPACE
      01002677H   PUBLIC    CODE     ---       _ISSPACE

Program Size: data=137.3 xdata=176 const=0 code=10056
LX51 RUN COMPLETE.  0 WARNING(S),  0 ERROR(S)
